(dp0
(S'mostly'
p1
S'i'
p2
S"'m"
p3
S'help'
p4
S'you'
p5
S'think'
p6
S'issues'
p7
S'life'
p8
tp9
(lp10
S'Uh huh, right. \t\r\n'
p11
as(S'i'
p12
S'feel'
p13
S'alone'
p14
tp15
(lp16
S"So, you feel alone but you don't think you're going to try to kill yourself.\tI guess so.\t\r\n"
p17
as(S'past'
p18
S'couple'
p19
S'months'
p20
S'you'
p21
S'thoughts'
p22
S'overdosing'
p23
tp24
(lp25
S'Nope. I just thought I needed a rest of some sort, and I wanted to talk it all over with Nick.\r\n'
p26
aS'A few times but I never got no pills out or something.\r\n'
p27
as(S'i'
p28
S"'ll"
p29
S'see'
p30
S'you'
p31
S'next'
p32
S'time'
p33
S'alex'
p34
tp35
(lp36
S'Yeah, later man. \t \t\r\n'
p37
as(S'i'
p38
S"n't"
p39
S'want'
p40
tp41
(lp42
S'Do you want to talk about why you are here? \t\r\n'
p43
as(S'you'
p44
S'tried'
p45
S'ways'
p46
S'killing'
p47
S'you'
p48
S'called'
p49
tp50
(lp51
S'Nope. I just thought I needed a rest of some sort, and I wanted to talk it all over with Nick.\r\n'
p52
as(S'you'
p53
S'tried'
p54
S'talk'
p55
S'daughter'
p56
tp57
(lp58
S"I tred, but she won't talk to me.\r\n"
p59
as(S'i'
p60
S'asked'
p61
S'you'
p62
S'find'
p63
S'solution'
p64
S'would'
p65
S'first'
p66
S'thing'
p67
S'you'
p68
S'think'
p69
tp70
(lp71
S'Spik to the staff again  maybe\r\n'
p72
as(S'you'
p73
S'dealing'
p74
S'sudden'
p75
S'death'
p76
S'susan'
p77
S'you'
p78
tp79
(lp80
S'are also feeling real guilty?\r\n'
p81
as(S'i'
p82
S"n't"
p83
S'want'
p84
S'alive'
p85
S'anymore'
p86
tp87
(lp88
S'Have you thought about taking your life?\t\r\n'
p89
as(S'i'
p90
S'still'
p91
S'cutting'
p92
tp93
(lp94
S'yes I think it would be good to say that. Could you also tell her that you would like help to stop it?\r\n'
p95
as(S'please'
p96
S'make'
p97
S'comfortable'
p98
tp99
(lp100
S'Thank you. Maybe next time I will bring you a flower. \t\r\n'
p101
as(S'you'
p102
S'something'
p103
S'you'
p104
S'always'
p105
S'welcome'
p106
S'write'
p107
S'us'
p108
S'-'
p109
S'also'
p110
S'you'
p111
S'need'
p112
S'find'
p113
S'solutions'
p114
tp115
(lp116
S'thanks bye bye\r\n'
p117
as(S'you'
p118
S'say'
p119
S'handful'
p120
S'many'
p121
S'you'
p122
S'mean'
p123
tp124
(lp125
S'About 10 of each.\r\n'
p126
as(S'you'
p127
S'really'
p128
S'miss'
p129
S"n't"
p130
S'you'
p131
tp132
(lp133
S'Oh God, I miss her. She made my world. She was my world.\r\n'
p134
as(S'sound'
p135
tp136
(lp137
S'That sounds helpful.\r\n'
p138
aS"I already keep a journal. It's something I learned to do in acting classes, explore the unconscious and stuff. \t\r\n"
p139
as(S'you'
p140
S'feel'
p141
S'you'
p142
S'see'
p143
S'around'
p144
tp145
(lp146
S'I try not to be in the same place at the same time, you know. And people help me. \t\r\n'
p147
as(S'great'
p148
S'you'
p149
S'happened'
p150
S'next'
p151
tp152
(lp153
S'They have tried to find the thing that it use for it, but they did not find them\r\n'
p154
as(S'would'
p155
S'you'
p156
S'go'
p157
S'killing'
p158
tp159
(lp160
S'Yes, I could do it with my car\r\n'
p161
as(S'nice'
p162
S'day.see'
p163
S'you'
p164
S'soon'
p165
tp166
(lp167
S'Good Morning\r\n'
p168
as(S'i'
p169
S'tried'
p170
S'already'
p171
tp172
(lp173
S'yes and it did not really help so she should find another and better way to help you. Could you say that to her?\r\n'
p174
as(S'safety'
p175
tp176
(lp177
S'yes. \r\n'
p178
as(S'carbon'
p179
S'monoxide'
p180
S'you'
p181
S'know'
p182
S'car'
p183
S'tractor'
p184
tp185
(lp186
S"My old barn is so drafty, you couldn't do that if you tried \r\n"
p187
as(S'grief'
p188
S'affect'
p189
S'different'
p190
S'people'
p191
S'differently'
p192
tp193
(lp194
S'Thank you for your help.\r\n'
p195
as(S'i'
p196
S'small'
p197
S'problem'
p198
S'i'
p199
S'cut'
p200
tp201
(lp202
S'Ok. Have you cut yourself today?\r\n'
p203
as(S'somehow'
p204
S'today'
p205
S'seem'
p206
S'like'
p207
S'good'
p208
S'idea'
p209
tp210
(lp211
S'So today is different. Are you seriously considering taking your own life? Have you made a plan\t\r\n'
p212
as(S'you'
p213
S'feel'
p214
S'fact'
p215
S'you'
p216
S'woke'
p217
S'okay'
p218
tp219
(lp220
S"I don't know. Sort of didn't care. It's just the way it is.\r\n"
p221
as(S'please'
p222
tp223
(lp224
S"My friend told me I should go see someone. It can't get worse if I see someone. \t\r\n"
p225
aS'Okay. All right. Sorry, Doc. \t\r\n'
p226
as(S'moment'
p227
tp228
(lp229
S'yes good. What could you say to her then?\r\n'
p230
as(S'much'
p231
S'you'
p232
S'take'
p233
S'one'
p234
tp235
(lp236
S'About a handful of each. \r\n'
p237
as(S'would'
p238
S'you'
p239
S'like'
p240
S'us'
p241
S'talk'
p242
S'chat'
p243
S'right'
p244
tp245
(lp246
S'I would like to get some advice how I stop this thing about me cutting myself,\r\n'
p247
as(S'stop'
p248
S'you'
p249
S'like'
p250
S'also'
p251
S'talk'
p252
S'bit'
p253
tp254
(lp255
S'about how you can talk to the staff member?\r\n'
p256
as(S'i'
p257
S'live'
p258
S'children'
p259
S"'s"
p260
S'home'
p261
S'i'
p262
S'done'
p263
S'two'
p264
S'months'
p265
tp266
(lp267
S'Where do your sister and brother live?\r\n'
p268
as(S'anything'
p269
S'you'
p270
S'considered'
p271
S'might'
p272
S'help'
p273
tp274
(lp275
S'no not really\r\n'
p276
as(S'you'
p277
S'tell'
p278
S'feelings'
p279
tp280
(lp281
S'Yes .\r\n'
p282
as(S'i'
p283
S'think'
p284
S'i'
p285
S'sick'
p286
tp287
(lp288
S'No, of course not. But you mentioned you have problems sleeping and concentrating. So the sooner we meet, the faster we will be able to address your problems. So, Thursday at 4 PM? \t\r\n'
p289
as(S'sounds'
p290
S'like'
p291
S'you'
p292
S'pretty'
p293
S'close'
p294
S'though'
p295
tp296
(lp297
S'yes. yes. I guess I was.\r\n'
p298
as(S'right'
p299
S'i'
p300
S'dont'
p301
S'go'
p302
S'school'
p303
tp304
(lp305
S"Can you tell me why you have moved to a children's home\r\n"
p306
as(S'yes'
p307
tp308
(lp309
S'Do you need help here and now, or should we talk a little about your situation?\r\n'
p310
as(S'acting'
p311
S'intrigues'
p312
S'you'
p313
tp314
(lp315
S'Well, I guess the style, the romance, the way anything could and did happen.\r\n'
p316
as(S'i'
p317
S"'ll"
p318
S'see'
p319
S'you'
p320
S'soon'
p321
tp322
(lp323
S'Good morning.\r\n'
p324
as(S'go'
p325
S'school'
p326
S'moment'
p327
tp328
(lp329
S'I have ocd\r\n'
p330
as(S'i'
p331
S"'m"
p332
S'done'
p333
tp334
(lp335
S'OK, Chris I understand. You see no hope. But I do. \r\n'
p336
as(S'you'
p337
S'thought'
p338
S'you'
p339
S'would'
p340
tp341
(lp342
S'Yes, I was planning to get drunk and drive off the bridge tonight.\r\n'
p343
as(S'others'
p344
S'family'
p345
S'ocd'
p346
tp347
(lp348
S'yes, my father and my sister\r\n'
p349
as(S'things'
p350
S'you'
p351
S'tried'
p352
tp353
(lp354
S'i have talked to my friends who also cut themselves. some of them have gone to therapy, but it does not help.\r\n'
p355
as(S'you'
p356
tp357
(lp358
S"I just can't help thinking that if it wasn't for me, Susan will still be\r\n"
p359
aS'OK. But I think I am going to be ok. I guess I should not drink so much alone.\r\n'
p360
aS'Of course I did!\r\n'
p361
aS'I am fine too.\r\n'
p362
as(S'would'
p363
S'you'
p364
S'like'
p365
S'tell'
p366
S'tricks'
p367
S'you'
p368
S'use'
p369
tp370
(lp371
S'Doc? Are you some kind of pervert or something? Why do you care about that? \t\r\n'
p372
as(S'hello'
p373
tp374
(lp375
S'Hello, how may I help you?\t\t\r\n'
p376
aS'How are you?\r\n'
p377
as(S'i'
p378
S'would'
p379
S'like'
p380
S'i'
p381
S'dont'
p382
S'really'
p383
S'know'
p384
S'say'
p385
tp386
(lp387
S'how could you get to talk to the staff member you trust alone?\r\n'
p388
as(S'you'
p389
S'thinking'
p390
S'you'
p391
S'blamed'
p392
S'susan'
p393
S"'s"
p394
S'death'
p395
tp396
(lp397
S'If I kill my self they will not have me to kick around any more!\r\n'
p398
as(S'making'
p399
S'plans'
p400
S'friends'
p401
S'family'
p402
S'members'
p403
tp404
(lp405
S'Thank you for your help.\r\n'
p406
as(S'ok'
p407
S'feel'
p408
S'way'
p409
S'first'
p410
S'time'
p411
tp412
(lp413
S"I'm so sorry.\r\n"
p414
as(S'i'
p415
S"'m"
p416
S'ready'
p417
S'leave'
p418
tp419
(lp420
S'Chris, we need to get some help right now. How would you like to proceed?\r\n'
p421
as(S'let'
p422
S'us'
p423
S'see'
p424
S'together'
p425
tp426
(lp427
S'yes\r\n'
p428
as(S'i'
p429
S'hope'
p430
S'daughter'
p431
S'better'
p432
S'soon'
p433
tp434
(lp435
S'Hello Doctor. \t\r\n'
p436
as(S'i'
p437
S'glad'
p438
S'you'
p439
S'like'
p440
S'thought'
p441
tp442
(lp443
S'Bye\r\n'
p444
as(S'you'
p445
S'mean'
p446
S'demanding'
p447
tp448
(lp449
S'Well, we always do what he wants to do. Except romantically. \t\r\n'
p450
as(S'lot'
p451
S'!'
p452
tp453
(lp454
S'And? \t\r\n'
p455
as(S'sister'
p456
S'lives'
p457
S'home'
p458
S'brother'
p459
S'moved'
p460
S'away'
p461
S'home'
p462
tp463
(lp464
S'Do you go to school?\r\n'
p465
as(S'still'
p466
tp467
(lp468
S'Question 5: Have you felt this way before? Have you ever tried to take your life?\t\t\r\n'
p469
as(S'pills'
p470
tp471
(lp472
S"I also took about 5 digoxin I'm on, more than I'm supposed to, I know that. \r\n"
p473
as(S'you'
p474
S'talked'
p475
S'since'
p476
tp477
(lp478
S'no\r\n'
p479
as(S'you'
p480
S'tried'
p481
S'far'
p482
S'make'
p483
S'stop'
p484
tp485
(lp486
S'I have told it to the staff here at the home\r\n'
p487
as(S'relationship'
p488
S'besides'
p489
S'acting'
p490
tp491
(lp492
S'Well...good, I guess.but...he can be kind of demanding at times. \r\n'
p493
aS'Well...good, I guess. We met in college, and have been dating ever since then. I do really like him, maybe even love him, but...he can be kind of demanding at times. \t\r\n'
p494
as(S'you'
p495
S'ever'
p496
S'go'
p497
S'gun'
p498
S'thinking'
p499
S'you'
p500
S'might'
p501
S'kill'
p502
tp503
(lp504
S"yes,  yes, I've done that.\r\n"
p505
as(S'i'
p506
S'thought'
p507
S'perhaps'
p508
S'talk'
p509
tp510
(lp511
S'Well, it was kind of funny.\t\r\n'
p512
as(S'please'
p513
S'seat'
p514
tp515
(lp516
S'Thank you.\r\n'
p517
aS"I'm so sorry I'm late. Everything seemed pitted against my getting here on time. Oh, God, twenty-five minutes late. I am sorry. \t\r\n"
p518
as(S'one'
p519
S'you'
p520
S'trust'
p521
tp522
(lp523
S'yes I think so. Thanks bye bye\r\n'
p524
as(S"n't"
p525
S'start'
p526
S'discussing'
p527
S'mind'
p528
tp529
(lp530
S'Well, I am very frustrated lately with my acting.\r\n'
p531
aS"Well, I am very frustrated lately. You see, I work as an executive assistant at SII, but it's really just a means to make money while I pursue my real goal--to be an actress. I have been taking classes since I was, like, 8 or 9 years old. Hollywood has always fascinated me. Can you imagine living in those times? The golden age of the cinema. Fred and Ginger waltzing across the big screen, Vivien Leigh and 'Gone With The Wind', Casablanca. \t\r\n"
p532
as(S'you'
p533
S'you'
p534
S'took'
p535
S'pills'
p536
tp537
(lp538
S'In the kitchen. I was sitting in a little kitchen nook where Sally and I used to eat lunch. I always loved that little place.\r\n'
p539
as(S'long'
p540
S'you'
p541
S'involved'
p542
tp543
(lp544
S"Let's see. I'll guess around two years.\r\n"
p545
as(S'ways'
p546
S'you'
p547
S'thought'
p548
S'killing'
p549
tp550
(lp551
S"Oh not much. . . . I suppose I thought about hangin' myself, but that is not a good way to die. You know, it doesn't always work, at least that's what I been told.\r\n"
p552
aS'Well, I have gone out to the barn to see if we still had some of that pesticide I used a couple of years ago.\r\n'
p553
aS"That's about it. Nothing else really.\r\n"
p554
as(S'you'
p555
S'still'
p556
S'feel'
p557
S'like'
p558
S'you'
p559
S'want'
p560
S'dead'
p561
tp562
(lp563
S'I guess not.\t\r\n'
p564
as(S'tell'
p565
S'you'
p566
S'pursue'
p567
S'dream'
p568
S'actress'
p569
tp570
(lp571
S"I guess I haven't been doing everything I should. \r\n"
p572
aS"I guess I haven't been doing everything I should. I mean, I don't have an agent. I started going to these acting classes--actually, it's this acting improvisational troupe. I really like going there, but it's so hard on me. \t\r\n"
p573
as(S'bye'
p574
S'bye'
p575
tp576
(lp577
S"OK, I guess. I just can't seem to stop thinking about Susan killing herself.\r\n"
p578
as(S'made'
p579
S'you'
p580
S'put'
p581
S'gun'
p582
S'mr'
p583
S'thompson'
p584
tp585
(lp586
S"I don't really know. Maybe I thought I should be around for all my grandkids, but I just don't know anymore.\r\n"
p587
as(S'girl'
p588
S'13'
p589
S'years'
p590
S'old'
p591
tp592
(lp593
S'Thanks  then I can better adapt to what you tell. What would you like to talk about?\r\n'
p594
as(S'i'
p595
S'liked'
p596
S'good'
p597
S'way'
p598
S'you'
p599
S'know'
p600
tp601
(lp602
S"Well I think we have to stop for today. I'd like you to come back on Thursday? \t\r\n"
p603
as(S'depression'
p604
tp605
(lp606
S'Chris, have you ever tried anything like this before?\r\n'
p607
as(S'okay'
p608
tp609
(lp610
S'Okay. Thank you Doctor. \r\n'
p611
as(S'i'
p612
S'ca'
p613
S"n't"
p614
S'live'
p615
S'guilt'
p616
tp617
(lp618
S'I understand it must be real painful to lose someone you care about.\r\n'
p619
as(S"'s"
p620
S'got'
p621
S'hard'
p622
S'alone'
p623
tp624
(lp625
S"You bet! With Sally gone it's all so very different.\r\n"
p626
as(S'hi'
p627
tp628
(lp629
S'Before we start please tell me how old you are and if you are a boy or a girl?\r\n'
p630
as(S'you'
p631
S'ever'
p632
S'picture'
p633
S'place'
p634
S'you'
p635
S'might'
p636
S'shoot'
p637
tp638
(lp639
S"There is a place down by Willow Creek that was the favorite place that Sally and I used to go.It's just lovely, even in the winter it's lovely.  And I've often thought that if I had to go, that's where I would do it.\r\n"
p640
as(S'pain'
p641
S'feels'
p642
S'intense'
p643
S'you'
p644
S'thinking'
p645
S'crashing'
p646
S'car'
p647
S'bridge'
p648
S'tonight'
p649
tp650
(lp651
S'Yes,\r\n'
p652
as(S'please'
p653
S'sit'
p654
tp655
(lp656
S'Thank you. Shall I just begin? \t\r\n'
p657
as(S'please'
p658
S'go'
p659
tp660
(lp661
S'When I see him around... \t\t\r\n'
p662
as(S'you'
p663
S'ever'
p664
S'tried'
p665
S'talk'
p666
S'anyone'
p667
S'pain'
p668
tp669
(lp670
S"I was thinking about going to my old therapist, but I don't even know\r\n"
p671
as(S'often'
p672
S'you'
p673
S'go'
p674
S'barn'
p675
S'thinking'
p676
tp677
(lp678
S"Maybe 4 or 5 times, I don't really remember exactly.\r\n"
p679
as(S'thank'
p680
S'you'
p681
tp682
(lp683
S'So, how can you help me, Doctor?\r\n'
p684
as(S'you'
p685
S'know'
p686
S'mr'
p687
S'thompson'
p688
S'farmers'
p689
S'i'
p690
S'know'
p691
S'like'
p692
S'hunt'
p693
S'least'
p694
S'gun'
p695
S'around'
p696
S'protect'
p697
S'animals'
p698
S'sometimes'
p699
S'lot'
p700
S'pain'
p701
S'like'
p702
S'you'
p703
S"'ve"
p704
S'think'
p705
S'shooting'
p706
S'i'
p707
S"'m"
p708
S'wondering'
p709
S'crossed'
p710
S'mind'
p711
tp712
(lp713
S'I suppose.\r\n'
p714
as(S'i'
p715
S"'m"
p716
S'sick'
p717
tp718
(lp719
S'I would be upset about it, too. \t\r\n'
p720
as(S'ca'
p721
S"n't"
p722
S'get'
p723
S'worse'
p724
tp725
(lp726
S'I always blabber on when I am nervous.\r\n'
p727
as(S'i'
p728
S'think'
p729
S'try'
p730
S'help'
p731
tp732
(lp733
S'Yes, that would be nice.\r\n'
p734
as(S'mr'
p735
S'thompson'
p736
S'roughly'
p737
tp738
(lp739
S'About 2 weeks ago.\r\n'
p740
as(t(lp741
S'last week\r\n'
p742
aS'For example something like I still cut myself and would like some help to stop it. But I dont think it is enough that you just take the things I use for cutting myself. I dont know what could help me, but I need help \x96 how does that sound?\r\n'
p743
aS'Is their any one you can talk to about this. Anyone who you think could help you solve these problems.\r\n'
p744
aS'Chris, I know it hurts a lot right now and it seems like there is no way out, but I that I can help you, if you let me.\r\n'
p745
aS"Couple of nights ago. But like I said, nothing came of it. I'm not sure I need any help. I'm not going to do anything stupid, you don't have to worry about that. \r\n"
p746
aS'Oh we did. And . . . and I was thinking about taking some and then burning the barn down with me inside it.\r\n'
p747
aS'Did you like it? \t\r\n'
p748
aS'My boyfriend is Jealous.\r\n'
p749
aS"I think it's because I am very busy,\r\n"
p750
aS'Well to start off, my boyfriend is not very happy with me and the acting thing. He thinks it\'s ridiculous because it is so hard to make a living at it. And in the meantime, I could be building a "real" career. He wants to get more serious with me, but wants to make sure that I can be a productive bread winner. And I think he is jealous. \t\r\n'
p751
aS'Well, for one thing, I think it\'s because I am very busy, so we have less time together. Plus there are men in the group, and sometimes we have to do love scenes. I\'ve told him its just acting, pretending, and its part of my "job." But he gets furious. He won\'t even discuss it anymore. \t\r\n'
p752
as(S'you'
p753
S'said'
p754
S'first'
p755
S'time'
p756
S'you'
p757
S'went'
p758
tp759
(lp760
S"Yes. I've been back a few times.\r\n"
p761
as(S'please'
p762
S'call'
p763
S'you'
p764
S'need'
p765
tp766
(lp767
S"It's been a long haul over the past 2 years. Sometimes too long a haul, if you know what I mean. I'm way too old for all this crap.\r\n"
p768
as(S'i'
p769
S'think'
p770
S'ok'
p771
tp772
(lp773
S'how do you think she will react if you say it in this way?\r\n'
p774
as(S'thursday'
p775
tp776
(lp777
S'Yes. \t\r\n'
p778
as(S'happens'
p779
S'romantically'
p780
tp781
(lp782
S"I don't know if I can discuss this. I mean, I am a little embarrassed and uncomfortable. \t\r\n"
p783
as(S'even'
p784
S'journal'
p785
S'you'
p786
S'read'
p787
S'i'
p788
S"'m"
p789
S'sure'
p790
S'you'
p791
S"'ll"
p792
S'find'
p793
S'valuable'
p794
tp795
(lp796
S'Okay. \t\r\n'
p797
as(S'brings'
p798
S'you'
p799
S'office'
p800
S'today'
p801
tp802
(lp803
S"Well, I am not sure really.I guess there have been some things on my mind lately. Maybe I shouldn't even be here.\r\n"
p804
aS"Well, I am not sure really. I had heard that SII signed up a new doctor, and I guess there have been some things on my mind lately. Maybe I shouldn't even be here. \t\r\n"
p805
as(S'you'
p806
S'want'
p807
S'talk'
p808
S'problem'
p809
tp810
(lp811
S'Why? You know what I did. \r\n'
p812
as(S'year'
p813
S'since'
p814
S'i'
p815
S'last'
p816
S'saw'
p817
tp818
(lp819
S'What were you seeing the therapist for?\r\n'
p820
as(S'talked'
p821
S'you'
p822
S'already'
p823
S'donewould'
p824
S'ok'
p825
S'you'
p826
S'finish'
p827
S'conversation'
p828
tp829
(lp830
S'here?\r\n'
p831
as(S'you'
p832
S'ever'
p833
S'gotten'
p834
S'rope'
p835
S'something'
p836
S'else'
p837
S'use'
p838
S'hang'
p839
tp840
(lp841
S"No sir, I haven't.\r\n"
p842
as(S'i'
p843
S'think'
p844
S'i'
p845
S'understand'
p846
S'you'
p847
S'tell'
p848
S'lead'
p849
S'you'
p850
S'think'
p851
S'suicide'
p852
tp853
(lp854
S"You got that right . I'll show them.\r\n"
p855
as(S'you'
p856
S'look'
p857
S'pills'
p858
tp859
(lp860
S'Not really pillsI did go through the drawer wondering if there was any rat poison around, but I realized that was stupid too. Trust me, suicide is not the answer, God did not put us on this earth to kill ourselves.\r\n'
p861
as(S"'s"
p862
S'like'
p863
S'i'
p864
S'much'
p865
S'choice'
p866
tp867
(lp868
S'I can see that you are not happy about it. \t\r\n'
p869
as(S'right'
p870
S'around'
p871
S'things'
p872
S'really'
p873
S'tough'
p874
S'much'
p875
S'time'
p876
S'you'
p877
S'spending'
p878
S'thinking'
p879
S'killing'
p880
S'70'
p881
S'%'
p882
S'waking'
p883
S'hours'
p884
S'80'
p885
S'%'
p886
S'90'
p887
S'%'
p888
tp889
(lp890
S"The truth is\x97I couldn't get it out of my mind.\r\n"
p891
as(S'least'
p892
S'i'
p893
S'hope'
p894
tp895
(lp896
S'Maybe.\r\n'
p897
as(S'you'
p898
S'pills'
p899
S'left'
p900
tp901
(lp902
S"Not a lot, I don't keep many pills in the house and my prescriptions have basically run out.\r\n"
p903
as(S'kind'
p904
S'pills'
p905
S'you'
p906
S'take'
p907
tp908
(lp909
S'Some aspirin, some penicillin.\r\n'
p910
as(S'yea'
p911
S'i'
p912
S'bet'
p913
S'brings'
p914
S'back'
p915
S'warm'
p916
S'memories'
p917
S'sally'
p918
tp919
(lp920
S'Yea, it does.\r\n'
p921
as(S'you'
p922
S'thought'
p923
S'jumping'
p924
S'building'
p925
S'bridge'
p926
tp927
(lp928
S'Nope.\r\n'
p929
as(S'even'
p930
S'friends'
p931
S"n't"
p932
S'i'
p933
S'think'
p934
tp935
(lp936
S'Okay, okay, I got it.\t\r\n'
p937
as(S'yes'
p938
S'thanks'
p939
tp940
(lp941
S'You are welcome. It was nice talking to you. It is great\r\n'
p942
as(S'one'
p943
S'except'
p944
S'you'
p945
S'talk'
p946
tp947
(lp948
S"I'm sure everyone hates me and wishes I were dead. I might as well do them a favor.\r\n"
p949
as(S'you'
p950
S'questions'
p951
S'feel'
p952
S'free'
p953
S'ask'
p954
S'anytime'
p955
S'okay'
p956
tp957
(lp958
S'Fine.Thank you.\r\n'
p959
as(S'i'
p960
S'understand'
p961
tp962
(lp963
S'Hello.\r\n'
p964
aS'Please, call me Avni.\r\n'
p965
as(S'i'
p966
S'would'
p967
S'like'
p968
S'talk'
p969
S'little'
p970
S'you'
p971
S'came'
p972
tp973
(lp974
S'I am sorry. I keep meaning to but... \t\r\n'
p975
as(S'well'
p976
S'avni'
p977
S'makes'
p978
S'you'
p979
S'comfortable'
p980
tp981
(lp982
S'This is my first time with a counselor.\r\n'
p983
as(S'amount'
p984
S'pain'
p985
S'board'
p986
S'mr'
p987
S'thompson'
p988
S'you'
p989
S'thoughts'
p990
S'killing'
p991
tp992
(lp993
S'I suppose my son may have already said something to you. . . . I took some pills . . . I know it was dumb, but nothing came of it anyway.\r\n'
p994
as(S'you'
p995
S'know'
p996
S'right'
p997
S'you'
p998
S'took'
p999
S'pills'
p1000
S'next'
p1001
S'thing'
p1002
S'you'
p1003
tp1004
(lp1005
S'Went to bed, just to sort of to see what would happen? I was just so tired of it all.\r\n'
p1006
as(S'you'
p1007
S'load'
p1008
S'gun'
p1009
tp1010
(lp1011
S'yes.\r\n'
p1012
as(S'i'
p1013
S"'m"
p1014
S'sure'
p1015
S'you'
p1016
S'try'
p1017
S'time'
p1018
S'future'
p1019
tp1020
(lp1021
S'Yes, Doctor, I will. Thank you. Please, call me Cassie. Everyone does. \t\r\n'
p1022
as(S'acting'
p1023
S'films'
p1024
S'intrigue'
p1025
S'you'
p1026
tp1027
(lp1028
S'Well, I guess the style, the romance, the way anything could and did happen. And dreams came true in this grand way. They were larger than life. \t\r\n'
p1029
as(S'parents'
p1030
S'live'
p1031
S'together'
p1032
tp1033
(lp1034
S'yes\r\n'
p1035
as(S'you'
p1036
S'next'
p1037
tp1038
(lp1039
S"Put it in my mouth. I read somewhere that's how you should do it.  Someone told me once they knew a guy who did that but didn't point it upwards so the darn thing shot right out the back of his neck hard to believe \r\n"
p1040
as(S'landing'
p1041
S'juvenile'
p1042
S'hall'
p1043
tp1044
(lp1045
S"Too much information, Doctor. I don't really give a shit what happened.\r\n"
p1046
as(S'let'
p1047
S'us'
p1048
S'talk'
p1049
tp1050
(lp1051
S'ok. Do you live at home with your parent, and have you got sisters and brothers?\r\n'
p1052
as(S'i'
p1053
S'always'
p1054
S'run'
p1055
tp1056
(lp1057
S'Do you really think you would be better off doing that? \t\r\n'
p1058
as(S'anything'
p1059
S'you'
p1060
S'know'
p1061
S'may'
p1062
S'caused'
p1063
S'react'
p1064
S'like'
p1065
tp1066
(lp1067
S'She is normally close to her grandparents.\r\n'
p1068
as(S'hello'
p1069
S'may'
p1070
S'i'
p1071
S'help'
p1072
S'you'
p1073
tp1074
(lp1075
S"My daughter has suddenly started skipping school and talking back to her teachers. She was always a good student.She won't talk to me or her friends. I don't know what to do.\r\n"
p1076
as(S'i'
p1077
S'think'
p1078
S'help'
p1079
S'you'
p1080
S'aspects'
p1081
S'life'
p1082
S'well'
p1083
tp1084
(lp1085
S'Do I have to bring it with me every week? \t\r\n'
p1086
as(S'thank'
p1087
S'you'
p1088
S'doctor'
p1089
tp1090
(lp1091
S'Welcome.\t\t\r\n'
p1092
as(S'hmmm'
p1093
tp1094
(lp1095
S"Yeah  sort of Hollywoodish  but it's no good, way too apt to not work out right.\r\n"
p1096
as(S'i'
p1097
S'dont'
p1098
S'live'
p1099
S'home'
p1100
S'parents'
p1101
S'i'
p1102
S'sister'
p1103
S'brother'
p1104
tp1105
(lp1106
S'Can you tell me a little about where you live?\r\n'
p1107
as(S'you'
p1108
S'drinking'
p1109
S'even'
p1110
S'little'
p1111
S'bit'
p1112
tp1113
(lp1114
S"Nope. I'm trying to lay off the stuff. It just gets me more depressed. Don't get me wrong, I'm still drinking, but not over the past couple of days.\r\n"
p1115
as(S'i'
p1116
S'could'
p1117
S'ask'
p1118
S'i'
p1119
S'could'
p1120
S'talk'
p1121
tp1122
(lp1123
S'Yes that sounds good. When can you ask her about that?\r\n'
p1124
as.