(dp0
(S'i'
p1
S"'d"
p2
S'like'
p3
S'you'
p4
S'come'
p5
S'back'
p6
S'thursday'
p7
tp8
(lp9
S'This Thursday? \t\r\n'
p10
as(S'yes'
p11
S'yes'
p12
S'i'
p13
S"'ve"
p14
S'done'
p15
tp16
(lp17
S'Did you load the gun? \r\n'
p18
as(S'yeah'
p19
S'sort'
p20
S'hollywoodish'
p21
S"'s"
p22
S'good'
p23
S'way'
p24
S'apt'
p25
S'work'
p26
S'right'
p27
tp28
(lp29
S'How often did you go out to the barn thinking about that? \r\n'
p30
as(S'i'
p31
S'see'
p32
S'you'
p33
S'happy'
p34
tp35
(lp36
S"I'm not. I don't like being told what to do. I can always run off. \t\r\n"
p37
as(S'i'
p38
S'thinking'
p39
S'going'
p40
S'old'
p41
S'therapist'
p42
S'i'
p43
S"n't"
p44
S'even'
p45
S'know'
p46
tp47
(lp48
S'if she is still around. It has been over a year since I last saw her.\r\n'
p49
as(S'you'
p50
S'really'
p51
S'think'
p52
S'you'
p53
S'would'
p54
S'better'
p55
tp56
(lp57
S"Maybe. I don't know. It's just that I'm tired of all these people telling me what I got to do with my life and my time. I'm sick of it.\r\n"
p58
as(S'well'
p59
S'kind'
p60
S'funny'
p61
tp62
(lp63
S'Did you do it? \t\r\n'
p64
as(S'larger'
p65
S'life'
p66
tp67
(lp68
S'So tell me, what are you doing to pursue your dream of being an actress? \t\r\n'
p69
as(S'you'
p70
S'dealing'
p71
S'sudden'
p72
S'death'
p73
S'susan'
p74
S'you'
p75
tp76
(lp77
S'are also feeling real guilty?\r\n'
p78
as(S'i'
p79
S'suppose'
p80
tp81
(lp82
S'Did you ever picture a place where you might shoot yourself? \r\n'
p83
as(S'i'
p84
S'still'
p85
S'cutting'
p86
tp87
(lp88
S'yes I think it would be good to say that. Could you also tell her that you would like help to stop it?\r\n'
p89
as(S'well'
p90
S'...'
p91
S'good'
p92
S'i'
p93
S'guess.but'
p94
S'...'
p95
S'kind'
p96
S'demanding'
p97
S'times'
p98
tp99
(lp100
S'I think it would help you to keep a journal. A place that you can fully express yourself, whenever you feel like it. How does that sound? \r\n'
p101
as(S'ca'
p102
S"n't"
p103
S'get'
p104
S'worse'
p105
S'i'
p106
S'see'
p107
S'someone'
p108
tp109
(lp110
S"What can't get any worse? \t\r\n"
p111
as(S'you'
p112
S'seeing'
p113
S'therapist'
p114
tp115
(lp116
S'Depression.\r\n'
p117
as(S'sounds'
p118
S'helpful'
p119
tp120
(lp121
S'I am glad you like the thought.\r\n'
p122
as(S'truth'
p123
S'is\x97i'
p124
S'could'
p125
S"n't"
p126
S'get'
p127
S'mind'
p128
tp129
(lp130
S'I can understand.\r\n'
p131
as(S'i'
p132
S'keep'
p133
S'meaning'
p134
S'...'
p135
tp136
(lp137
S"That's okay. Please go on.\r\n"
p138
as(S'times'
p139
S'i'
p140
S'never'
p141
S'got'
p142
S'pills'
p143
S'something'
p144
tp145
(lp146
S'What other ways have you thought about killing yourself? \r\n'
p147
as(S'yeah'
p148
S'later'
p149
S'man'
p150
tp151
(lp152
S'Please? \t\r\n'
p153
as(S'nope'
p154
tp155
(lp156
S"You know, Mr Thompson, most farmers I know like to hunt or at least have a gun around to protect their animals, and sometimes when they are in a lot of pain like you've been having they think of shooting themselves, I'm wondering if that has crossed your mind? \r\n"
p157
as(S'yea'
p158
tp159
(lp160
S'What kind of pills did you take? \r\n'
p161
as(S'sorry'
p162
S'doc'
p163
tp164
(lp165
S"Thank you. I'll see you soon. \t\r\n"
p166
as(S'i'
p167
S'bring'
p168
S'every'
p169
S'week'
p170
tp171
(lp172
S"That is up to you. The journal is a tool to assist you in monitoring your feelings. What bothers you, what makes you happy, and so forth. Then, at a later time, you can go back and reflect on what transpired, or remind yourself how you handled a situation and how you can best handle it if the problem resurfaces. If you would like to bring it in to discuss or as a basis for discussion, then by all means, do so. I also like to read them because they give me some insight into who you are. But if you feel uncomfortable about my reading your journal, that's perfectly okay too. Even if the journal is just for you to read, I'm sure you'll find it valuable. \t\r\n"
p173
as(S'boyfriend'
p174
S'jealous'
p175
tp176
(lp177
S'Jealous? How so? \r\n'
p178
as(S'i'
p179
S'always'
p180
S'blabber'
p181
S'i'
p182
S'nervous'
p183
tp184
(lp185
S"It's alright. Please make yourself comfortable.\r\n"
p186
as(S'you'
p187
S'something'
p188
S'you'
p189
S'always'
p190
S'welcome'
p191
S'write'
p192
S'us'
p193
S'-'
p194
S'also'
p195
S'you'
p196
S'need'
p197
S'find'
p198
S'solutions'
p199
tp200
(lp201
S'thanks bye bye\r\n'
p202
as(S'sir'
p203
S'i'
p204
S"n't"
p205
tp206
(lp207
S'What other ways have you thought about killing yourself? \r\n'
p208
as(S'good'
p209
S'morning'
p210
tp211
(lp212
S'Hello.\r\n'
p213
aS'Good morning Ms. Evans. Please have a seat. \t\r\n'
p214
as(S'i'
p215
S'tried'
p216
S'already'
p217
tp218
(lp219
S'yes and it did not really help so she should find another and better way to help you. Could you say that to her?\r\n'
p220
as(S'i'
p221
S'know'
p222
S'dumb'
p223
S'nothing'
p224
S'came'
p225
S'anyway'
p226
tp227
(lp228
S'When was that?\r\n'
p229
as(S'i'
p230
S'small'
p231
S'problem'
p232
S'i'
p233
S'cut'
p234
tp235
(lp236
S'Ok. Have you cut yourself today?\r\n'
p237
as(S'maybe'
p238
S'next'
p239
S'time'
p240
S'i'
p241
S'bring'
p242
S'you'
p243
S'flower'
p244
tp245
(lp246
S"That's very nice of you. But I would like to talk a little about why you came here.\t\r\n"
p247
as(S'i'
p248
S'fine'
p249
tp250
(lp251
S'Please have a seat.\r\n'
p252
as(S"n't"
p253
S'get'
p254
S'wrong'
p255
S'i'
p256
S"'m"
p257
S'still'
p258
S'drinking'
p259
S'past'
p260
S'couple'
p261
S'days'
p262
tp263
(lp264
S'I know from your son that you called him the next day. Had you tried any other ways of killing yourself before you called him?\r\n'
p265
as(S'moment'
p266
tp267
(lp268
S'yes good. What could you say to her then?\r\n'
p269
as(S'uh'
p270
S'huh'
p271
S'right'
p272
tp273
(lp274
S'I can help you, if you let me. Do you want to talk about your problem? \t\r\n'
p275
as(S'except'
p276
S'romantically'
p277
tp278
(lp279
S'What happens romantically? \t\r\n'
p280
as(S'bye'
p281
tp282
(lp283
S'Have a nice day.See you soon.\r\n'
p284
as(S'10'
p285
tp286
(lp287
S'Any other pills?\r\n'
p288
as(S'would'
p289
S'you'
p290
S'like'
p291
S'us'
p292
S'talk'
p293
S'chat'
p294
S'right'
p295
tp296
(lp297
S'I would like to get some advice how I stop this thing about me cutting myself,\r\n'
p298
as(S'stop'
p299
S'you'
p300
S'like'
p301
S'also'
p302
S'talk'
p303
S'bit'
p304
tp305
(lp306
S'about how you can talk to the staff member?\r\n'
p307
as(S'i'
p308
S'live'
p309
S'children'
p310
S"'s"
p311
S'home'
p312
S'i'
p313
S'done'
p314
S'two'
p315
S'months'
p316
tp317
(lp318
S'Where do your sister and brother live?\r\n'
p319
as(S'i'
p320
S'mean'
p321
S'i'
p322
S'little'
p323
S'embarrassed'
p324
S'uncomfortable'
p325
tp326
(lp327
S"I understand. This is only our first session and it's normal to take some time to develop a level of trust between us. Hopefully we'll be able to explore troubling areas more deeply as time progresses. In the meantime, I think it would help you to keep a journal. A place that you can fully express yourself, whenever you feel like it. How does that sound? \t\r\n"
p328
as(S'i'
p329
S'would'
p330
S'upset'
p331
tp332
(lp333
S"Would you? Do you really understand? I don't think anybody really does, you know. Even my friends don't, I think. \r\n"
p334
as(S'anything'
p335
S'you'
p336
S'considered'
p337
S'might'
p338
S'help'
p339
tp340
(lp341
S'no not really\r\n'
p342
as(S'i'
p343
S'guess'
p344
S'i'
p345
S'drink'
p346
S'much'
p347
S'alone'
p348
tp349
(lp350
S'Making plans with friends and family members\t\r\n'
p351
as(S'you'
p352
S'tell'
p353
S'feelings'
p354
tp355
(lp356
S'Yes .\r\n'
p357
as(S'you'
p358
S'know'
p359
S"n't"
p360
S'always'
p361
S'work'
p362
S'least'
p363
S"'s"
p364
S'i'
p365
S'told'
p366
tp367
(lp368
S'Have you ever gotten a rope out or something else to use to hang yourself?\r\n'
p369
as(S'old'
p370
S'barn'
p371
S'drafty'
p372
S'you'
p373
S'could'
p374
S"n't"
p375
S'you'
p376
S'tried'
p377
tp378
(lp379
S'Have you thought of jumping off a building or bridge? \r\n'
p380
as(S'right'
p381
S'i'
p382
S'dont'
p383
S'go'
p384
S'school'
p385
tp386
(lp387
S"Can you tell me why you have moved to a children's home\r\n"
p388
as(S'yes'
p389
tp390
(lp391
S'Do you need help here and now, or should we talk a little about your situation?\r\n'
p392
aS'Have you ever tried to talk to anyone about this pain before?\r\n'
p393
aS'What did you do next?\r\n'
p394
aS"You really miss her don't you?\r\n"
p395
aS'I did not think I was that sick. \t\r\n'
p396
as(S'i'
p397
S"n't"
p398
S'really'
p399
S'give'
p400
S'shit'
p401
S'happened'
p402
tp403
(lp404
S"We aren't out of time just yet. Would you like to tell me about the tricks you use? \t\r\n"
p405
as(S'go'
p406
S'school'
p407
S'moment'
p408
tp409
(lp410
S'I have ocd\r\n'
p411
as(S'everyone'
p412
tp413
(lp414
S'Very well, Cassie, if it makes you more comfortable. I see from your form that you have never been to a therapist before. If you have any questions feel free to ask them at anytime, okay? Now, what brings you into the office today? \t\r\n'
p415
as(S'i'
p416
S"'ve"
p417
S'back'
p418
S'times'
p419
tp420
(lp421
S"Actually, we are just about out of time.. I'll see you next time, Alex. \t\r\n"
p422
as(S'fine.thank'
p423
S'you'
p424
tp425
(lp426
S"Okay. Why don't we start by discussing what has been on your mind? \t\r\n"
p427
as(S'i'
p428
S'asked'
p429
S'you'
p430
S'find'
p431
S'solution'
p432
S'would'
p433
S'first'
p434
S'thing'
p435
S'you'
p436
S'think'
p437
tp438
(lp439
S'Spik to the staff again  maybe\r\n'
p440
as(S'others'
p441
S'family'
p442
S'ocd'
p443
tp444
(lp445
S'yes, my father and my sister\r\n'
p446
as(S'i'
p447
S'tired'
p448
tp449
(lp450
S'How did you feel about the fact that you woke up okay?\r\n'
p451
as(S'first'
p452
S'time'
p453
S'counselor'
p454
tp455
(lp456
S'If you have any questions feel free to ask them at anytime, okay?\r\n'
p457
as(S'nothing'
p458
S'else'
p459
S'really'
p460
tp461
(lp462
S'What about carbon monoxide, you know, with a car or tractor? \r\n'
p463
as(S'things'
p464
S'you'
p465
S'tried'
p466
tp467
(lp468
S'i have talked to my friends who also cut themselves. some of them have gone to therapy, but it does not help.\r\n'
p469
as(S'chris'
p470
S'you'
p471
S'mentioned'
p472
S'you'
p473
S'think'
p474
S'suicide'
p475
S'way'
p476
S'cope'
p477
tp478
(lp479
S"feelings and problem generated by Susan's death. Do you have a plan? How would you go about killing yourself?\r\n"
p480
as(S'anyone'
p481
S'you'
p482
S'think'
p483
S'could'
p484
S'help'
p485
S'you'
p486
S'solve'
p487
S'problems'
p488
tp489
(lp490
S'No.\r\n'
p491
as(S'you'
p492
tp493
(lp494
S"I just can't help thinking that if it wasn't for me, Susan will still be\r\n"
p495
aS'I am fine. How are you?\r\n'
p496
as(S'hello'
p497
S'doctor'
p498
tp499
(lp500
S'Hello. Please sit down. \t\r\n'
p501
as(S'i'
p502
S'tred'
p503
S'wo'
p504
S"n't"
p505
S'talk'
p506
tp507
(lp508
S'Your guess as to what might have happened. Is there anything you know of that may have caused her to react like this?\r\n'
p509
as(S'would'
p510
S'you'
p511
S'like'
p512
S'proceed'
p513
tp514
(lp515
S"I'm done with all of this?\r\n"
p516
as(S'hello'
p517
tp518
(lp519
S'Hello, how may I help you?\r\n'
p520
as(S'i'
p521
S'would'
p522
S'like'
p523
S'i'
p524
S'dont'
p525
S'really'
p526
S'know'
p527
S'say'
p528
tp529
(lp530
S'how could you get to talk to the staff member you trust alone?\r\n'
p531
as(S'you'
p532
S'thinking'
p533
S'you'
p534
S'blamed'
p535
S'susan'
p536
S"'s"
p537
S'death'
p538
tp539
(lp540
S'If I kill my self they will not have me to kick around any more!\r\n'
p541
as(S'2'
p542
S'weeks'
p543
S'ago'
p544
tp545
(lp546
S'Right around then, when things were really tough, how much time were you spending thinking about killing yourself, 70% of your waking hours, 80%, 90%? \r\n'
p547
as(S'welcome'
p548
tp549
(lp550
S"I don't want to be here. \t\r\n"
p551
as(S'let'
p552
S'us'
p553
S'see'
p554
S'together'
p555
tp556
(lp557
S'yes\r\n'
p558
as(S"'s"
p559
S'something'
p560
S'i'
p561
S'learned'
p562
S'acting'
p563
S'classes'
p564
S'explore'
p565
S'unconscious'
p566
S'stuff'
p567
tp568
(lp569
S'Good. I think this will help you with other aspects of life as well. \t\r\n'
p570
as(S'i'
p571
S"'ve"
p572
S'often'
p573
S'thought'
p574
S'i'
p575
S'go'
p576
S"'s"
p577
S'i'
p578
S'would'
p579
tp580
(lp581
S'Did you ever go there with a gun, thinking you might kill yourself? \r\n'
p582
as(S'you'
p583
S'thought'
p584
S'taking'
p585
S'life'
p586
tp587
(lp588
S"I've thought about it but I wouldn't do it. Somehow, today, it does seem more like a good idea.\t\r\n"
p589
as(S'i'
p590
S'always'
p591
S'loved'
p592
S'little'
p593
S'place'
p594
tp595
(lp596
S' Yea, I bet it brings back warm memories of Sally.\r\n'
p597
as(S'sister'
p598
S'lives'
p599
S'home'
p600
S'brother'
p601
S'moved'
p602
S'away'
p603
S'home'
p604
tp605
(lp606
S'Do you go to school?\r\n'
p607
as(S'thursday'
p608
S'4'
p609
S'pm'
p610
tp611
(lp612
S'Okay. Thank you Doctor. \t\r\n'
p613
as(S'aspirin'
p614
S'penicillin'
p615
tp616
(lp617
S'How much did you take of each one? \r\n'
p618
as(S'you'
p619
S'help'
p620
S'doctor'
p621
tp622
(lp623
S"I understand you don't want to be here. And I'm not a social worker. Mostly, I'm here to help you think through some issues in your life. \t\r\n"
p624
as(S'you'
p625
S'talked'
p626
S'since'
p627
tp628
(lp629
S'no\r\n'
p630
as(S'you'
p631
S'tried'
p632
S'far'
p633
S'make'
p634
S'stop'
p635
tp636
(lp637
S'I have told it to the staff here at the home\r\n'
p638
as(S'maybe'
p639
S'i'
p640
S'thought'
p641
S'i'
p642
S'around'
p643
S'grandkids'
p644
S'i'
p645
S"n't"
p646
S'know'
p647
S'anymore'
p648
tp649
(lp650
S'Mr Thompson, roughly when was this?\r\n'
p651
as(S'wo'
p652
S"n't"
p653
S'even'
p654
S'discuss'
p655
S'anymore'
p656
tp657
(lp658
S'How is your relationship with him besides the acting? \t\r\n'
p659
as(S'i'
p660
S'dont'
p661
S'live'
p662
S'home'
p663
S'parents'
p664
S'i'
p665
S'sister'
p666
S'brother'
p667
tp668
(lp669
S'Can you tell me a little about where you live?\r\n'
p670
as(S'i'
p671
S"'m"
p672
S'way'
p673
S'old'
p674
S'crap'
p675
tp676
(lp677
S"And it's got to be hard to do it alone.\r\n"
p678
as(S'one'
p679
S'you'
p680
S'trust'
p681
tp682
(lp683
S'yes I think so. Thanks bye bye\r\n'
p684
as(S'i'
p685
S'guess'
p686
S'i'
p687
tp688
(lp689
S'Was the safety off?\r\n'
p690
as(S'lot'
p691
S'i'
p692
S"n't"
p693
S'keep'
p694
S'many'
p695
S'pills'
p696
S'house'
p697
S'prescriptions'
p698
S'basically'
p699
S'run'
p700
tp701
(lp702
S'Did you look for any other pills?\r\n'
p703
as(S'well'
p704
S'i'
p705
S'gone'
p706
S'barn'
p707
S'see'
p708
S'still'
p709
S'pesticide'
p710
S'i'
p711
S'used'
p712
S'couple'
p713
S'years'
p714
S'ago'
p715
tp716
(lp717
S'And? \r\n'
p718
as(S'chris'
p719
S'you'
p720
S'ever'
p721
S'tried'
p722
S'anything'
p723
S'like'
p724
tp725
(lp726
S'No\r\n'
p727
as(S'bye'
p728
S'bye'
p729
tp730
(lp731
S"OK, I guess. I just can't seem to stop thinking about Susan killing herself.\r\n"
p732
as(S'girl'
p733
S'13'
p734
S'years'
p735
S'old'
p736
tp737
(lp738
S'Thanks  then I can better adapt to what you tell. What would you like to talk about?\r\n'
p739
as(S'i'
p740
S'see'
p741
S'around'
p742
S'...'
p743
tp744
(lp745
S'How do you feel when you see him around? \t\r\n'
p746
as(S'i'
p747
S"'m"
p748
S'sorry'
p749
tp750
(lp751
S'I do understand.\r\n'
p752
as(S'i'
p753
S"'ll"
p754
S'guess'
p755
S'around'
p756
S'two'
p757
S'years'
p758
tp759
(lp760
S'And do you consider yourself the winner in this case? After landing in juvenile hall? \t\r\n'
p761
as(S'okay'
p762
tp763
(lp764
S"Good. I'm afraid our session is a bit abbreviated this time. So I'll see you in a week. Let's see, that's July 30th at 1 o'clock. Okay? \t\r\n"
p765
as(S'i'
p766
S'ca'
p767
S"n't"
p768
S'live'
p769
S'guilt'
p770
tp771
(lp772
S'I understand it must be real painful to lose someone you care about.\r\n'
p773
as(S"'s"
p774
S'way'
p775
tp776
(lp777
S'Had you been drinking at all, even a little bit?\r\n'
p778
as(S'you'
p779
S'made'
p780
S'plan'
p781
tp782
(lp783
S"Well, I have been sitting here thinking about it. I thought about my guns but I don't think I would use one. Still.\t\t\r\n"
p784
as(S'fred'
p785
S'ginger'
p786
S'waltzing'
p787
S'across'
p788
S'big'
p789
S'screen'
p790
S'vivien'
p791
S'leigh'
p792
S"'gone"
p793
S'wind'
p794
S'casablanca'
p795
tp796
(lp797
S'What is it about acting and those films that intrigue you? \t\r\n'
p798
as(S'hi'
p799
tp800
(lp801
S'Before we start please tell me how old you are and if you are a boy or a girl?\r\n'
p802
as(S'i'
p803
S'thinking'
p804
S'taking'
p805
S'burning'
p806
S'barn'
p807
S'inside'
p808
tp809
(lp810
S'Hmmm.\r\n'
p811
as(S'well'
p812
S'i'
p813
S'guess'
p814
S'style'
p815
S'romance'
p816
S'way'
p817
S'anything'
p818
S'could'
p819
S'happen'
p820
tp821
(lp822
S'So tell me, what are you doing to pursue your dream of being an actress? \r\n'
p823
as(S'you'
p824
S'care'
p825
tp826
(lp827
S'You brought it up. I thought perhaps we should talk about that. \t\r\n'
p828
as(S'i'
p829
S'thought'
p830
S'i'
p831
S'needed'
p832
S'rest'
p833
S'sort'
p834
S'i'
p835
S'wanted'
p836
S'talk'
p837
S'nick'
p838
tp839
(lp840
S'Good. How about over the past couple of months, have you had any other thoughts of overdosing?\r\n'
p841
aS'Good. How about over the past couple of months, have you had any other thoughts of overdosing? \r\n'
p842
as(S'thank'
p843
S'you'
p844
tp845
(lp846
S'Now, what brings you into the office today? \t\r\n'
p847
as(S'you'
p848
S'know'
p849
S'i'
p850
tp851
(lp852
S"Let's go back to the issue at hand. How long have you been involved in this? \t\r\n"
p853
as(S'i'
p854
S'think'
p855
S"'s"
p856
S'i'
p857
S'busy'
p858
tp859
(lp860
S'How is your relationship with him besides the acting? \r\n'
p861
as(S'i'
p862
S"n't"
p863
S'know'
p864
tp865
(lp866
S'Have you tried to talk to your daughter?\r\n'
p867
as(S'chris'
p868
S'i'
p869
S'know'
p870
S'hurts'
p871
S'lot'
p872
S'right'
p873
S'seems'
p874
S'like'
p875
S'way'
p876
S'i'
p877
S'i'
p878
S'help'
p879
S'you'
p880
S'you'
p881
S'let'
p882
tp883
(lp884
S"What can you do ? I'm ready to leave now.\r\n"
p885
as(S'i'
p886
S'think'
p887
S'try'
p888
S'help'
p889
tp890
(lp891
S'Yes, that would be nice.\r\n'
p892
as(S'i'
p893
S'also'
p894
S'took'
p895
S'5'
p896
S'digoxin'
p897
S'i'
p898
S"'m"
p899
S'i'
p900
S"'m"
p901
S'supposed'
p902
S'i'
p903
S'know'
p904
tp905
(lp906
S'Did you have any pills left? \r\n'
p907
as(t(lp908
S'last week\r\n'
p909
aS'For example something like I still cut myself and would like some help to stop it. But I dont think it is enough that you just take the things I use for cutting myself. I dont know what could help me, but I need help \x96 how does that sound?\r\n'
p910
aS'I liked it in a good way, you know. \t\r\n'
p911
as(S'i'
p912
S'really'
p913
S'like'
p914
S'going'
p915
S"'s"
p916
S'hard'
p917
tp918
(lp919
S'Why? \t\r\n'
p920
as(S'i'
p921
S'think'
p922
S'ok'
p923
tp924
(lp925
S'how do you think she will react if you say it in this way?\r\n'
p926
as(S'shall'
p927
S'i'
p928
S'begin'
p929
tp930
(lp931
S'Please do. \t\r\n'
p932
as(S'trust'
p933
S'suicide'
p934
S'answer'
p935
S'god'
p936
S'put'
p937
S'us'
p938
S'earth'
p939
S'kill'
p940
tp941
(lp942
S"I'm glad you feel that way. And maybe we can help some too. At least I hope so.\r\n"
p943
as(S'course'
p944
S'i'
p945
S'!'
p946
tp947
(lp948
S'You said it was the first time you went there? \t\r\n'
p949
as(S'thank'
p950
S'you'
p951
S'help'
p952
tp953
(lp954
S"I'm glad that you called. Please call again if you need to.\r\n"
p955
aS"I'm glad that you called. I hope your daughter will be better soon.\r\n"
p956
as(S'i'
p957
S'guess'
p958
tp959
(lp960
S'So how are you feeling now? Do you still feel like you want to be dead?\t\r\n'
p961
aS"I'm glad to hear that you're not feeling like taking your life now. PAUSE, allow  time to respond or not as they\twish. If you are not convinced that the  is ok, return to the assessment and probe more.I want you to promise to call back if you start feeling like taking your life. Will you do that?\r\n"
p962
as(S'talked'
p963
S'you'
p964
S'already'
p965
S'donewould'
p966
S'ok'
p967
S'you'
p968
S'finish'
p969
S'conversation'
p970
tp971
(lp972
S'here?\r\n'
p973
as(S'i'
p974
S'think'
p975
S'i'
p976
S'understand'
p977
S'you'
p978
S'tell'
p979
S'lead'
p980
S'you'
p981
S'think'
p982
S'suicide'
p983
tp984
(lp985
S"You got that right . I'll show them.\r\n"
p986
as(S'i'
p987
S'sorry'
p988
tp989
(lp990
S"I do understand. I'm sure you will try to be on time in the future. \t\r\n"
p991
as(S'world'
p992
tp993
(lp994
S'What made you put the gun down, Mr Thompson? \r\n'
p995
as(S'maybe'
p996
S'i'
p997
S"n't"
p998
S'even'
p999
tp1000
(lp1001
S'It is ok to feel that way first time.\r\n'
p1002
aS"Okay. Why don't we start by discussing what has been on your mind? \t\r\n"
p1003
as(S'i'
p1004
S'really'
p1005
S'like'
p1006
S'maybe'
p1007
S'even'
p1008
S'love'
p1009
S'...'
p1010
S'kind'
p1011
S'demanding'
p1012
S'times'
p1013
tp1014
(lp1015
S'How do you mean, demanding? \t\r\n'
p1016
as(S'i'
p1017
tp1018
(lp1019
S'hello.  \r\n'
p1020
as(S'okay'
p1021
S'okay'
p1022
S'i'
p1023
S'got'
p1024
tp1025
(lp1026
S"That's a start. Thank you.\t\r\n"
p1027
as(S'normally'
p1028
S'close'
p1029
S'grandparents'
p1030
tp1031
(lp1032
S'grief can affect different people differently.\r\n'
p1033
as(S'i'
p1034
S'think'
p1035
S'jealous'
p1036
tp1037
(lp1038
S'Jealous? How so? \t\r\n'
p1039
as(S'maybe'
p1040
S'4'
p1041
S'5'
p1042
S'times'
p1043
S'i'
p1044
S"n't"
p1045
S'really'
p1046
S'remember'
p1047
S'exactly'
p1048
tp1049
(lp1050
S'What other ways have you thought of killing yourself? \r\n'
p1051
as(S'yes'
p1052
S'i'
p1053
S'planning'
p1054
S'get'
p1055
S'drunk'
p1056
S'drive'
p1057
S'bridge'
p1058
S'tonight'
p1059
tp1060
(lp1061
S'So the pain feels so intense you are thinking of crashing your car off the bridge tonight.\r\n'
p1062
as(S'yes'
p1063
S'i'
p1064
S'could'
p1065
S'car'
p1066
tp1067
(lp1068
S'Have you thought about when you would do it?\r\n'
p1069
as(S'yes'
p1070
S'thanks'
p1071
tp1072
(lp1073
S'You are welcome. It was nice talking to you. It is great\r\n'
p1074
as(S'great'
p1075
S'you'
p1076
S'happened'
p1077
S'next'
p1078
tp1079
(lp1080
S'They have tried to find the thing that it use for it, but they did not find them\r\n'
p1081
as(S'one'
p1082
S'except'
p1083
S'you'
p1084
S'talk'
p1085
tp1086
(lp1087
S"I'm sure everyone hates me and wishes I were dead. I might as well do them a favor.\r\n"
p1088
as(S'i'
p1089
S'guess'
p1090
S'i'
p1091
S"n't"
p1092
S'everything'
p1093
S'i'
p1094
tp1095
(lp1096
S'Why? \r\n'
p1097
as(S'you'
p1098
S'want'
p1099
S'talk'
p1100
S'you'
p1101
tp1102
(lp1103
S"Doctor, you know why I'm here. It's not like I had much of a choice.\t\r\n"
p1104
as(S'well'
p1105
S'i'
p1106
S'frustrated'
p1107
S'lately'
p1108
S'acting'
p1109
tp1110
(lp1111
S'What is it about acting that intrigues you? \t\r\n'
p1112
as(S'people'
p1113
S'help'
p1114
tp1115
(lp1116
S'How?\r\n'
p1117
as(S'handful'
p1118
tp1119
(lp1120
S'When you say a handful, how many of each do you mean? \r\n'
p1121
as(S'sally'
p1122
S'gone'
p1123
S"'s"
p1124
S'different'
p1125
tp1126
(lp1127
S"I'm sure the pain of her loss is beyond words. With that amount of pain on board, Mr Thompson, have you had any thoughts of killing yourself? \r\n"
p1128
as(S'parents'
p1129
S'live'
p1130
S'together'
p1131
tp1132
(lp1133
S'yes\r\n'
p1134
as(S'let'
p1135
S'us'
p1136
S'talk'
p1137
tp1138
(lp1139
S'ok. Do you live at home with your parent, and have you got sisters and brothers?\r\n'
p1140
as(S'hello'
p1141
S'may'
p1142
S'i'
p1143
S'help'
p1144
S'you'
p1145
tp1146
(lp1147
S"I just called because I'm hopeless and alone. The only thing that helps is rinking. I just don't want to be alive anymore.\t\r\n"
p1148
as(S'i'
p1149
S"'m"
p1150
S'going'
p1151
S'anything'
p1152
S'stupid'
p1153
S'you'
p1154
S"n't"
p1155
S'worry'
p1156
tp1157
(lp1158
S"You know what, Mr Thompson . . . that may be true, but I just want to get a better feeling for what you've been going through so we can make a wise decision together. Where were you when you took the pills? \r\n"
p1159
as(S'maybe'
p1160
tp1161
(lp1162
S'You know, right after you took the pills, what was the next thing you did.\r\n'
p1163
as(S'thank'
p1164
S'you'
p1165
S'doctor'
p1166
tp1167
(lp1168
S'You are welcome\r\n'
p1169
as(S'please'
p1170
S'call'
p1171
S'avni'
p1172
tp1173
(lp1174
S'Very well, Avni, if it makes you more comfortable.\r\n'
p1175
as(S'you'
p1176
S'like'
p1177
tp1178
(lp1179
S'A lot! \t\r\n'
p1180
as(S'you'
p1181
S'ever'
p1182
S'tried'
p1183
S'take'
p1184
S'life'
p1185
tp1186
(lp1187
S"No, I haven't tried to kill myself. It seems too hard. I feel alone.\t\t\r\n"
p1188
as(S'i'
p1189
S'could'
p1190
S'ask'
p1191
S'i'
p1192
S'could'
p1193
S'talk'
p1194
tp1195
(lp1196
S'Yes that sounds good. When can you ask her about that?\r\n'
p1197
as(S'someone'
p1198
S'told'
p1199
S'knew'
p1200
S'guy'
p1201
S"n't"
p1202
S'point'
p1203
S'upwards'
p1204
S'darn'
p1205
S'thing'
p1206
S'shot'
p1207
S'right'
p1208
S'back'
p1209
S'neck'
p1210
S'hard'
p1211
S'believe'
p1212
tp1213
(lp1214
S'Sounds like you were pretty close though.\r\n'
p1215
as.