(dp0
(S'brings'
p1
S'office'
p2
S'today'
p3
tp4
(lp5
I1
as(S'well'
p6
S'rachel'
p7
S'makes'
p8
S'comfortable'
p9
tp10
(lp11
I1
as(S'ever'
p12
S'therapist'
p13
tp14
(lp15
I1
aI1
as(S'good'
p16
S'morning'
p17
S'vivek'
p18
tp19
(lp20
I1
as.