(dp0
(S'i'
p1
S"'d"
p2
S'like'
p3
S'you'
p4
S'come'
p5
S'back'
p6
S'thursday'
p7
tp8
(lp9
S'This Thursday? \t\r\n'
p10
as(S'yes'
p11
S'yes'
p12
S'i'
p13
S"'ve"
p14
S'done'
p15
tp16
(lp17
S'Did you load the gun? \r\n'
p18
as(S'yeah'
p19
S'sort'
p20
S'hollywoodish'
p21
S"'s"
p22
S'good'
p23
S'way'
p24
S'apt'
p25
S'work'
p26
S'right'
p27
tp28
(lp29
S'How often did you go out to the barn thinking about that? \r\n'
p30
as(S'i'
p31
S'happy'
p32
tp33
(lp34
S", Maybe I didn't understand your meaning."
p35
as(S'i'
p36
S'see'
p37
S'you'
p38
S'happy'
p39
tp40
(lp41
S"I'm not. I don't like being told what to do. I can always run off. \t\r\n"
p42
as(S'i'
p43
S'thinking'
p44
S'going'
p45
S'old'
p46
S'therapist'
p47
S'i'
p48
S"n't"
p49
S'even'
p50
S'know'
p51
tp52
(lp53
S'if she is still around. It has been over a year since I last saw her.\r\n'
p54
as(S'you'
p55
S'really'
p56
S'think'
p57
S'you'
p58
S'would'
p59
S'better'
p60
tp61
(lp62
S"Maybe. I don't know. It's just that I'm tired of all these people telling me what I got to do with my life and my time. I'm sick of it.\r\n"
p63
as(S'well'
p64
S'kind'
p65
S'funny'
p66
tp67
(lp68
S'Did you do it? \t\r\n'
p69
as(S'larger'
p70
S'life'
p71
tp72
(lp73
S'So tell me, what are you doing to pursue your dream of being an actress? \t\r\n'
p74
as(S'you'
p75
S'dealing'
p76
S'sudden'
p77
S'death'
p78
S'susan'
p79
S'you'
p80
tp81
(lp82
S'are also feeling real guilty?\r\n'
p83
as(S'i'
p84
S'suppose'
p85
tp86
(lp87
S'Did you ever picture a place where you might shoot yourself? \r\n'
p88
as(S'i'
p89
S'still'
p90
S'cutting'
p91
tp92
(lp93
S'yes I think it would be good to say that. Could you also tell her that you would like help to stop it?\r\n'
p94
as(S'well'
p95
S'...'
p96
S'good'
p97
S'i'
p98
S'guess.but'
p99
S'...'
p100
S'kind'
p101
S'demanding'
p102
S'times'
p103
tp104
(lp105
S'I think it would help you to keep a journal. A place that you can fully express yourself, whenever you feel like it. How does that sound? \r\n'
p106
as(S'ca'
p107
S"n't"
p108
S'get'
p109
S'worse'
p110
S'i'
p111
S'see'
p112
S'someone'
p113
tp114
(lp115
S"What can't get any worse? \t\r\n"
p116
as(S'you'
p117
S'seeing'
p118
S'therapist'
p119
tp120
(lp121
S'Depression.\r\n'
p122
as(S'i'
p123
S'find'
p124
S'time'
p125
tp126
(lp127
S"Ah. Why can't you do find time?"
p128
as(S'truth'
p129
S'is\x97i'
p130
S'could'
p131
S"n't"
p132
S'get'
p133
S'mind'
p134
tp135
(lp136
S'I can understand.\r\n'
p137
as(S'i'
p138
S'keep'
p139
S'meaning'
p140
S'...'
p141
tp142
(lp143
S"That's okay. Please go on.\r\n"
p144
as(S'times'
p145
S'i'
p146
S'never'
p147
S'got'
p148
S'pills'
p149
S'something'
p150
tp151
(lp152
S'What other ways have you thought about killing yourself? \r\n'
p153
as(S'i'
p154
S'tired'
p155
tp156
(lp157
S'How did you feel about the fact that you woke up okay?\r\n'
p158
as(S'nope'
p159
tp160
(lp161
S"You know, Mr Thompson, most farmers I know like to hunt or at least have a gun around to protect their animals, and sometimes when they are in a lot of pain like you've been having they think of shooting themselves, I'm wondering if that has crossed your mind? \r\n"
p162
as(S'yea'
p163
tp164
(lp165
S'What kind of pills did you take? \r\n'
p166
as(S'sorry'
p167
S'doc'
p168
tp169
(lp170
S"Thank you. I'll see you soon. \t\r\n"
p171
as(S'i'
p172
S'bring'
p173
S'every'
p174
S'week'
p175
tp176
(lp177
S"That is up to you. The journal is a tool to assist you in monitoring your feelings. What bothers you, what makes you happy, and so forth. Then, at a later time, you can go back and reflect on what transpired, or remind yourself how you handled a situation and how you can best handle it if the problem resurfaces. If you would like to bring it in to discuss or as a basis for discussion, then by all means, do so. I also like to read them because they give me some insight into who you are. But if you feel uncomfortable about my reading your journal, that's perfectly okay too. Even if the journal is just for you to read, I'm sure you'll find it valuable. \t\r\n"
p178
as(S'heloo'
p179
tp180
(lp181
S"Quite honestly, I wouldn't worry myself about that. Do you speak Spanish?"
p182
as(S'boyfriend'
p183
S'jealous'
p184
tp185
(lp186
S'Jealous? How so? \r\n'
p187
as(S'i'
p188
S'always'
p189
S'blabber'
p190
S'i'
p191
S'nervous'
p192
tp193
(lp194
S"It's alright. Please make yourself comfortable.\r\n"
p195
as(S'you'
p196
S'something'
p197
S'you'
p198
S'always'
p199
S'welcome'
p200
S'write'
p201
S'us'
p202
S'-'
p203
S'also'
p204
S'you'
p205
S'need'
p206
S'find'
p207
S'solutions'
p208
tp209
(lp210
S'thanks bye bye\r\n'
p211
as(S'sir'
p212
S'i'
p213
S"n't"
p214
tp215
(lp216
S'What other ways have you thought about killing yourself? \r\n'
p217
as(S'good'
p218
S'morning'
p219
tp220
(lp221
S'Hello.\r\n'
p222
aS'Good morning Ms. Evans. Please have a seat. \t\r\n'
p223
as(S'i'
p224
S'tried'
p225
S'already'
p226
tp227
(lp228
S'yes and it did not really help so she should find another and better way to help you. Could you say that to her?\r\n'
p229
as(S'i'
p230
S'know'
p231
S'dumb'
p232
S'nothing'
p233
S'came'
p234
S'anyway'
p235
tp236
(lp237
S'When was that?\r\n'
p238
as(S'i'
p239
S'small'
p240
S'problem'
p241
S'i'
p242
S'cut'
p243
tp244
(lp245
S'Ok. Have you cut yourself today?\r\n'
p246
as(S'maybe'
p247
S'next'
p248
S'time'
p249
S'i'
p250
S'bring'
p251
S'you'
p252
S'flower'
p253
tp254
(lp255
S"That's very nice of you. But I would like to talk a little about why you came here.\t\r\n"
p256
as(S'i'
p257
S'fine'
p258
tp259
(lp260
S'Please have a seat.\r\n'
p261
as(S'2'
p262
S'weeks'
p263
S'ago'
p264
tp265
(lp266
S'Right around then, when things were really tough, how much time were you spending thinking about killing yourself, 70% of your waking hours, 80%, 90%? \r\n'
p267
as(S'moment'
p268
tp269
(lp270
S'yes good. What could you say to her then?\r\n'
p271
as(S'i'
p272
S'love'
p273
S'you'
p274
tp275
(lp276
S'Thanks I like you a lot too .'
p277
as(S'uh'
p278
S'huh'
p279
S'right'
p280
tp281
(lp282
S'I can help you, if you let me. Do you want to talk about your problem? \t\r\n'
p283
as(S'i'
p284
S'love'
p285
S'playing'
p286
S'games'
p287
tp288
(lp289
S'You love playing games. What do you like about playing games so much?'
p290
as(S'except'
p291
S'romantically'
p292
tp293
(lp294
S'What happens romantically? \t\r\n'
p295
as(S'bye'
p296
tp297
(lp298
S'Have a nice day.See you soon.\r\n'
p299
as(S'you'
p300
S'understand'
p301
tp302
(lp303
S'Maybe I will do understand?'
p304
as(S'10'
p305
tp306
(lp307
S'Any other pills?\r\n'
p308
as(S'would'
p309
S'you'
p310
S'like'
p311
S'us'
p312
S'talk'
p313
S'chat'
p314
S'right'
p315
tp316
(lp317
S'I would like to get some advice how I stop this thing about me cutting myself,\r\n'
p318
as(S'stop'
p319
S'you'
p320
S'like'
p321
S'also'
p322
S'talk'
p323
S'bit'
p324
tp325
(lp326
S'about how you can talk to the staff member?\r\n'
p327
as(S'i'
p328
S'live'
p329
S'children'
p330
S"'s"
p331
S'home'
p332
S'i'
p333
S'done'
p334
S'two'
p335
S'months'
p336
tp337
(lp338
S'Where do your sister and brother live?\r\n'
p339
as(S'yes'
p340
S'thanks'
p341
tp342
(lp343
S'You are welcome. It was nice talking to you. It is great\r\n'
p344
as(S'i'
p345
S'would'
p346
S'upset'
p347
tp348
(lp349
S"Would you? Do you really understand? I don't think anybody really does, you know. Even my friends don't, I think. \r\n"
p350
as(S'sounds'
p351
S'helpful'
p352
tp353
(lp354
S'I am glad you like the thought.\r\n'
p355
as(S'i'
p356
S'guess'
p357
S'i'
p358
S'drink'
p359
S'much'
p360
S'alone'
p361
tp362
(lp363
S'Making plans with friends and family members\t\r\n'
p364
as(S'you'
p365
S'tell'
p366
S'feelings'
p367
tp368
(lp369
S'Yes .\r\n'
p370
as(S'you'
p371
S'know'
p372
S"n't"
p373
S'always'
p374
S'work'
p375
S'least'
p376
S"'s"
p377
S'i'
p378
S'told'
p379
tp380
(lp381
S'Have you ever gotten a rope out or something else to use to hang yourself?\r\n'
p382
as(S'old'
p383
S'barn'
p384
S'drafty'
p385
S'you'
p386
S'could'
p387
S"n't"
p388
S'you'
p389
S'tried'
p390
tp391
(lp392
S'Have you thought of jumping off a building or bridge? \r\n'
p393
as(S'i'
p394
S'sad'
p395
tp396
(lp397
S", Maybe I didn't understand your meaning."
p398
as(S'right'
p399
S'i'
p400
S'dont'
p401
S'go'
p402
S'school'
p403
tp404
(lp405
S"Can you tell me why you have moved to a children's home\r\n"
p406
as(S'yes'
p407
tp408
(lp409
S'Do you need help here and now, or should we talk a little about your situation?\r\n'
p410
aS'Have you ever tried to talk to anyone about this pain before?\r\n'
p411
aS'What did you do next?\r\n'
p412
aS"You really miss her don't you?\r\n"
p413
aS'I did not think I was that sick. \t\r\n'
p414
as(S'i'
p415
S"n't"
p416
S'really'
p417
S'give'
p418
S'shit'
p419
S'happened'
p420
tp421
(lp422
S"We aren't out of time just yet. Would you like to tell me about the tricks you use? \t\r\n"
p423
as(S'one'
p424
S'except'
p425
S'you'
p426
S'talk'
p427
tp428
(lp429
S"I'm sure everyone hates me and wishes I were dead. I might as well do them a favor.\r\n"
p430
as(S'everyone'
p431
tp432
(lp433
S'Very well, Cassie, if it makes you more comfortable. I see from your form that you have never been to a therapist before. If you have any questions feel free to ask them at anytime, okay? Now, what brings you into the office today? \t\r\n'
p434
as(S'i'
p435
S"'ve"
p436
S'back'
p437
S'times'
p438
tp439
(lp440
S"Actually, we are just about out of time.. I'll see you next time, Alex. \t\r\n"
p441
as(S'well'
p442
S'i'
p443
S'gone'
p444
S'barn'
p445
S'see'
p446
S'still'
p447
S'pesticide'
p448
S'i'
p449
S'used'
p450
S'couple'
p451
S'years'
p452
S'ago'
p453
tp454
(lp455
S'And? \r\n'
p456
as(S'i'
p457
S'asked'
p458
S'you'
p459
S'find'
p460
S'solution'
p461
S'would'
p462
S'first'
p463
S'thing'
p464
S'you'
p465
S'think'
p466
tp467
(lp468
S'Spik to the staff again  maybe\r\n'
p469
as(S'well'
p470
S'i'
p471
S'guess'
p472
S'style'
p473
S'romance'
p474
S'way'
p475
S'anything'
p476
S'could'
p477
S'happen'
p478
tp479
(lp480
S'So tell me, what are you doing to pursue your dream of being an actress? \r\n'
p481
as(S'yeah'
p482
S'later'
p483
S'man'
p484
tp485
(lp486
S'Please? \t\r\n'
p487
as(S'first'
p488
S'time'
p489
S'counselor'
p490
tp491
(lp492
S'If you have any questions feel free to ask them at anytime, okay?\r\n'
p493
as(S'nothing'
p494
S'else'
p495
S'really'
p496
tp497
(lp498
S'What about carbon monoxide, you know, with a car or tractor? \r\n'
p499
as(S'things'
p500
S'you'
p501
S'tried'
p502
tp503
(lp504
S'i have talked to my friends who also cut themselves. some of them have gone to therapy, but it does not help.\r\n'
p505
as(S'chris'
p506
S'you'
p507
S'mentioned'
p508
S'you'
p509
S'think'
p510
S'suicide'
p511
S'way'
p512
S'cope'
p513
tp514
(lp515
S"feelings and problem generated by Susan's death. Do you have a plan? How would you go about killing yourself?\r\n"
p516
as(S'anyone'
p517
S'you'
p518
S'think'
p519
S'could'
p520
S'help'
p521
S'you'
p522
S'solve'
p523
S'problems'
p524
tp525
(lp526
S'No.\r\n'
p527
as(S'you'
p528
tp529
(lp530
S"I just can't help thinking that if it wasn't for me, Susan will still be\r\n"
p531
aS'I am fine. How are you?\r\n'
p532
as(S'hello'
p533
S'doctor'
p534
tp535
(lp536
S'Hello. Please sit down. \t\r\n'
p537
as(S'i'
p538
S'tred'
p539
S'wo'
p540
S"n't"
p541
S'talk'
p542
tp543
(lp544
S'Your guess as to what might have happened. Is there anything you know of that may have caused her to react like this?\r\n'
p545
as(S'would'
p546
S'you'
p547
S'like'
p548
S'proceed'
p549
tp550
(lp551
S"I'm done with all of this?\r\n"
p552
as(S'hello'
p553
tp554
(lp555
S'Hello, how may I help you?\r\n'
p556
as(S'i'
p557
S'would'
p558
S'like'
p559
S'i'
p560
S'dont'
p561
S'really'
p562
S'know'
p563
S'say'
p564
tp565
(lp566
S'how could you get to talk to the staff member you trust alone?\r\n'
p567
as(S'you'
p568
S'thinking'
p569
S'you'
p570
S'blamed'
p571
S'susan'
p572
S"'s"
p573
S'death'
p574
tp575
(lp576
S'If I kill my self they will not have me to kick around any more!\r\n'
p577
as(S"n't"
p578
S'get'
p579
S'wrong'
p580
S'i'
p581
S"'m"
p582
S'still'
p583
S'drinking'
p584
S'past'
p585
S'couple'
p586
S'days'
p587
tp588
(lp589
S'I know from your son that you called him the next day. Had you tried any other ways of killing yourself before you called him?\r\n'
p590
as(S'wo'
p591
S"n't"
p592
S'even'
p593
S'discuss'
p594
S'anymore'
p595
tp596
(lp597
S'How is your relationship with him besides the acting? \t\r\n'
p598
as(S'let'
p599
S'us'
p600
S'see'
p601
S'together'
p602
tp603
(lp604
S'yes\r\n'
p605
as(S"'s"
p606
S'something'
p607
S'i'
p608
S'learned'
p609
S'acting'
p610
S'classes'
p611
S'explore'
p612
S'unconscious'
p613
S'stuff'
p614
tp615
(lp616
S'Good. I think this will help you with other aspects of life as well. \t\r\n'
p617
as(S'i'
p618
S"'ve"
p619
S'often'
p620
S'thought'
p621
S'i'
p622
S'go'
p623
S"'s"
p624
S'i'
p625
S'would'
p626
tp627
(lp628
S'Did you ever go there with a gun, thinking you might kill yourself? \r\n'
p629
as(S'you'
p630
S'thought'
p631
S'taking'
p632
S'life'
p633
tp634
(lp635
S"I've thought about it but I wouldn't do it. Somehow, today, it does seem more like a good idea.\t\r\n"
p636
as(S'i'
p637
S'always'
p638
S'loved'
p639
S'little'
p640
S'place'
p641
tp642
(lp643
S' Yea, I bet it brings back warm memories of Sally.\r\n'
p644
as(S'sister'
p645
S'lives'
p646
S'home'
p647
S'brother'
p648
S'moved'
p649
S'away'
p650
S'home'
p651
tp652
(lp653
S'Do you go to school?\r\n'
p654
as(S'thursday'
p655
S'4'
p656
S'pm'
p657
tp658
(lp659
S'Okay. Thank you Doctor. \t\r\n'
p660
as(S'aspirin'
p661
S'penicillin'
p662
tp663
(lp664
S'How much did you take of each one? \r\n'
p665
as(S'you'
p666
S'help'
p667
S'doctor'
p668
tp669
(lp670
S"I understand you don't want to be here. And I'm not a social worker. Mostly, I'm here to help you think through some issues in your life. \t\r\n"
p671
as(S'you'
p672
S'talked'
p673
S'since'
p674
tp675
(lp676
S'no\r\n'
p677
as(S'you'
p678
S'tried'
p679
S'far'
p680
S'make'
p681
S'stop'
p682
tp683
(lp684
S'I have told it to the staff here at the home\r\n'
p685
as(S'maybe'
p686
S'i'
p687
S'thought'
p688
S'i'
p689
S'around'
p690
S'grandkids'
p691
S'i'
p692
S"n't"
p693
S'know'
p694
S'anymore'
p695
tp696
(lp697
S'Mr Thompson, roughly when was this?\r\n'
p698
as(S'welcome'
p699
tp700
(lp701
S"I don't want to be here. \t\r\n"
p702
as(S'i'
p703
S'dont'
p704
S'live'
p705
S'home'
p706
S'parents'
p707
S'i'
p708
S'sister'
p709
S'brother'
p710
tp711
(lp712
S'Can you tell me a little about where you live?\r\n'
p713
as(S'i'
p714
S"'m"
p715
S'way'
p716
S'old'
p717
S'crap'
p718
tp719
(lp720
S"And it's got to be hard to do it alone.\r\n"
p721
as(S'i'
p722
S'hungry'
p723
tp724
(lp725
S'What will you be eating?'
p726
as(S'one'
p727
S'you'
p728
S'trust'
p729
tp730
(lp731
S'yes I think so. Thanks bye bye\r\n'
p732
as(S'i'
p733
S'guess'
p734
S'i'
p735
tp736
(lp737
S'Was the safety off?\r\n'
p738
as(S'lot'
p739
S'i'
p740
S"n't"
p741
S'keep'
p742
S'many'
p743
S'pills'
p744
S'house'
p745
S'prescriptions'
p746
S'basically'
p747
S'run'
p748
tp749
(lp750
S'Did you look for any other pills?\r\n'
p751
as(S'fine.thank'
p752
S'you'
p753
tp754
(lp755
S"Okay. Why don't we start by discussing what has been on your mind? \t\r\n"
p756
as(S'chris'
p757
S'you'
p758
S'ever'
p759
S'tried'
p760
S'anything'
p761
S'like'
p762
tp763
(lp764
S'No\r\n'
p765
as(S'i'
p766
S'feeling'
p767
S'sad'
p768
S'today'
p769
tp770
(lp771
S'What\'s the connection between "today " and sadness?'
p772
as(S'i'
p773
S'busy'
p774
tp775
(lp776
S'Where were you busy?'
p777
as(S'bye'
p778
S'bye'
p779
tp780
(lp781
S"OK, I guess. I just can't seem to stop thinking about Susan killing herself.\r\n"
p782
as(S'girl'
p783
S'13'
p784
S'years'
p785
S'old'
p786
tp787
(lp788
S'Thanks  then I can better adapt to what you tell. What would you like to talk about?\r\n'
p789
as(S'i'
p790
S'see'
p791
S'around'
p792
S'...'
p793
tp794
(lp795
S'How do you feel when you see him around? \t\r\n'
p796
as(S'thing'
p797
S'look'
p798
S'like'
p799
tp800
(lp801
S'How should I know how  that thing look like  does.'
p802
as(S'i'
p803
S"'m"
p804
S'sorry'
p805
tp806
(lp807
S'I do understand.\r\n'
p808
as(S'i'
p809
S"'ll"
p810
S'guess'
p811
S'around'
p812
S'two'
p813
S'years'
p814
tp815
(lp816
S'And do you consider yourself the winner in this case? After landing in juvenile hall? \t\r\n'
p817
as(S'okay'
p818
tp819
(lp820
S"Good. I'm afraid our session is a bit abbreviated this time. So I'll see you in a week. Let's see, that's July 30th at 1 o'clock. Okay? \t\r\n"
p821
as(S'i'
p822
S'ca'
p823
S"n't"
p824
S'live'
p825
S'guilt'
p826
tp827
(lp828
S'I understand it must be real painful to lose someone you care about.\r\n'
p829
as(S"'s"
p830
S'way'
p831
tp832
(lp833
S'Had you been drinking at all, even a little bit?\r\n'
p834
as(S'you'
p835
S'made'
p836
S'plan'
p837
tp838
(lp839
S"Well, I have been sitting here thinking about it. I thought about my guns but I don't think I would use one. Still.\t\t\r\n"
p840
as(S'hi'
p841
tp842
(lp843
S'Before we start please tell me how old you are and if you are a boy or a girl?\r\n'
p844
as(S'jerk'
p845
tp846
(lp847
S"Perhaps I'm just expressing my own concern about it. What is your occupation?"
p848
as(S'i'
p849
S'thinking'
p850
S'taking'
p851
S'burning'
p852
S'barn'
p853
S'inside'
p854
tp855
(lp856
S'Hmmm.\r\n'
p857
as(S'fred'
p858
S'ginger'
p859
S'waltzing'
p860
S'across'
p861
S'big'
p862
S'screen'
p863
S'vivien'
p864
S'leigh'
p865
S"'gone"
p866
S'wind'
p867
S"'"
p868
S'casablanca'
p869
tp870
(lp871
S'What is it about acting and those films that intrigue you? \t\r\n'
p872
as(S'you'
p873
S'care'
p874
tp875
(lp876
S'You brought it up. I thought perhaps we should talk about that. \t\r\n'
p877
as(S'i'
p878
S'thought'
p879
S'i'
p880
S'needed'
p881
S'rest'
p882
S'sort'
p883
S'i'
p884
S'wanted'
p885
S'talk'
p886
S'nick'
p887
tp888
(lp889
S'Good. How about over the past couple of months, have you had any other thoughts of overdosing?\r\n'
p890
aS'Good. How about over the past couple of months, have you had any other thoughts of overdosing? \r\n'
p891
as(S'thank'
p892
S'you'
p893
tp894
(lp895
S'Now, what brings you into the office today? \t\r\n'
p896
as(S'you'
p897
S'know'
p898
S'i'
p899
tp900
(lp901
S"Let's go back to the issue at hand. How long have you been involved in this? \t\r\n"
p902
as(S'i'
p903
S'think'
p904
S"'s"
p905
S'i'
p906
S'busy'
p907
tp908
(lp909
S'How is your relationship with him besides the acting? \r\n'
p910
as(S'i'
p911
S'fine.what'
p912
S'you'
p913
tp914
(lp915
S"Glad to hear it. What's new?  Me?"
p916
as(S'anything'
p917
S'you'
p918
S'considered'
p919
S'might'
p920
S'help'
p921
tp922
(lp923
S'no not really\r\n'
p924
as(S'i'
p925
S'think'
p926
S'try'
p927
S'help'
p928
tp929
(lp930
S'Yes, that would be nice.\r\n'
p931
as(S'i'
p932
S'also'
p933
S'took'
p934
S'5'
p935
S'digoxin'
p936
S'i'
p937
S"'m"
p938
S'i'
p939
S"'m"
p940
S'supposed'
p941
S'i'
p942
S'know'
p943
tp944
(lp945
S'Did you have any pills left? \r\n'
p946
as(t(lp947
S'last week\r\n'
p948
aS'For example something like I still cut myself and would like some help to stop it. But I dont think it is enough that you just take the things I use for cutting myself. I dont know what could help me, but I need help \x96 how does that sound?\r\n'
p949
aS'I liked it in a good way, you know. \t\r\n'
p950
as(S'i'
p951
S'really'
p952
S'like'
p953
S'going'
p954
S"'s"
p955
S'hard'
p956
tp957
(lp958
S'Why? \t\r\n'
p959
as(S'i'
p960
S'think'
p961
S'ok'
p962
tp963
(lp964
S'how do you think she will react if you say it in this way?\r\n'
p965
as(S'shall'
p966
S'i'
p967
S'begin'
p968
tp969
(lp970
S'Please do. \t\r\n'
p971
as(S'trust'
p972
S'suicide'
p973
S'answer'
p974
S'god'
p975
S'put'
p976
S'us'
p977
S'earth'
p978
S'kill'
p979
tp980
(lp981
S"I'm glad you feel that way. And maybe we can help some too. At least I hope so.\r\n"
p982
as(S'course'
p983
S'i'
p984
S'!'
p985
tp986
(lp987
S'You said it was the first time you went there? \t\r\n'
p988
as(S'thank'
p989
S'you'
p990
S'help'
p991
tp992
(lp993
S"I'm glad that you called. Please call again if you need to.\r\n"
p994
aS"I'm glad that you called. I hope your daughter will be better soon.\r\n"
p995
as(S'i'
p996
S'guess'
p997
tp998
(lp999
S'So how are you feeling now? Do you still feel like you want to be dead?\t\r\n'
p1000
aS"I'm glad to hear that you're not feeling like taking your life now. PAUSE, allow  time to respond or not as they\twish. If you are not convinced that the  is ok, return to the assessment and probe more.I want you to promise to call back if you start feeling like taking your life. Will you do that?\r\n"
p1001
as(S'chris'
p1002
S'i'
p1003
S'know'
p1004
S'hurts'
p1005
S'lot'
p1006
S'right'
p1007
S'seems'
p1008
S'like'
p1009
S'way'
p1010
S'i'
p1011
S'i'
p1012
S'help'
p1013
S'you'
p1014
S'you'
p1015
S'let'
p1016
tp1017
(lp1018
S"What can you do ? I'm ready to leave now.\r\n"
p1019
as(S'i'
p1020
S"'m"
p1021
S'going'
p1022
S'anything'
p1023
S'stupid'
p1024
S'you'
p1025
S"n't"
p1026
S'worry'
p1027
tp1028
(lp1029
S"You know what, Mr Thompson . . . that may be true, but I just want to get a better feeling for what you've been going through so we can make a wise decision together. Where were you when you took the pills? \r\n"
p1030
as(S'talked'
p1031
S'you'
p1032
S'already'
p1033
S'donewould'
p1034
S'ok'
p1035
S'you'
p1036
S'finish'
p1037
S'conversation'
p1038
tp1039
(lp1040
S'here?\r\n'
p1041
as(S'i'
p1042
S'think'
p1043
S'i'
p1044
S'understand'
p1045
S'you'
p1046
S'tell'
p1047
S'lead'
p1048
S'you'
p1049
S'think'
p1050
S'suicide'
p1051
tp1052
(lp1053
S"You got that right . I'll show them.\r\n"
p1054
as(S'i'
p1055
S'sorry'
p1056
tp1057
(lp1058
S"I do understand. I'm sure you will try to be on time in the future. \t\r\n"
p1059
as(S'world'
p1060
tp1061
(lp1062
S'What made you put the gun down, Mr Thompson? \r\n'
p1063
as(S'maybe'
p1064
S'i'
p1065
S"n't"
p1066
S'even'
p1067
tp1068
(lp1069
S'It is ok to feel that way first time.\r\n'
p1070
aS"Okay. Why don't we start by discussing what has been on your mind? \t\r\n"
p1071
as(S'i'
p1072
S'really'
p1073
S'like'
p1074
S'maybe'
p1075
S'even'
p1076
S'love'
p1077
S'...'
p1078
S'kind'
p1079
S'demanding'
p1080
S'times'
p1081
tp1082
(lp1083
S'How do you mean, demanding? \t\r\n'
p1084
as(S'i'
p1085
tp1086
(lp1087
S'hello.  \r\n'
p1088
as(S'normally'
p1089
S'close'
p1090
S'grandparents'
p1091
tp1092
(lp1093
S'grief can affect different people differently.\r\n'
p1094
as(S'i'
p1095
S'think'
p1096
S'jealous'
p1097
tp1098
(lp1099
S'Jealous? How so? \t\r\n'
p1100
as(S'maybe'
p1101
S'4'
p1102
S'5'
p1103
S'times'
p1104
S'i'
p1105
S"n't"
p1106
S'really'
p1107
S'remember'
p1108
S'exactly'
p1109
tp1110
(lp1111
S'What other ways have you thought of killing yourself? \r\n'
p1112
as(S'yes'
p1113
S'i'
p1114
S'planning'
p1115
S'get'
p1116
S'drunk'
p1117
S'drive'
p1118
S'bridge'
p1119
S'tonight'
p1120
tp1121
(lp1122
S'So the pain feels so intense you are thinking of crashing your car off the bridge tonight.\r\n'
p1123
as(S'yes'
p1124
S'i'
p1125
S'could'
p1126
S'car'
p1127
tp1128
(lp1129
S'Have you thought about when you would do it?\r\n'
p1130
as(S'i'
p1131
S"n't"
p1132
S'know'
p1133
tp1134
(lp1135
S'Have you tried to talk to your daughter?\r\n'
p1136
as(S'i'
p1137
S'mean'
p1138
S'i'
p1139
S'little'
p1140
S'embarrassed'
p1141
S'uncomfortable'
p1142
tp1143
(lp1144
S"I understand. This is only our first session and it's normal to take some time to develop a level of trust between us. Hopefully we'll be able to explore troubling areas more deeply as time progresses. In the meantime, I think it would help you to keep a journal. A place that you can fully express yourself, whenever you feel like it. How does that sound? \t\r\n"
p1145
as(S'great'
p1146
S'you'
p1147
S'happened'
p1148
S'next'
p1149
tp1150
(lp1151
S'They have tried to find the thing that it use for it, but they did not find them\r\n'
p1152
as(S'go'
p1153
S'school'
p1154
S'moment'
p1155
tp1156
(lp1157
S'I have ocd\r\n'
p1158
as(S'i'
p1159
S'guess'
p1160
S'i'
p1161
S"n't"
p1162
S'everything'
p1163
S'i'
p1164
tp1165
(lp1166
S'Why? \r\n'
p1167
as(S'you'
p1168
S'want'
p1169
S'talk'
p1170
S'you'
p1171
tp1172
(lp1173
S"Doctor, you know why I'm here. It's not like I had much of a choice.\t\r\n"
p1174
as(S'well'
p1175
S'i'
p1176
S'frustrated'
p1177
S'lately'
p1178
S'acting'
p1179
tp1180
(lp1181
S'What is it about acting that intrigues you? \t\r\n'
p1182
as(S'people'
p1183
S'help'
p1184
tp1185
(lp1186
S'How?\r\n'
p1187
as(S'handful'
p1188
tp1189
(lp1190
S'When you say a handful, how many of each do you mean? \r\n'
p1191
as(S'i'
p1192
S'see'
p1193
tp1194
(lp1195
S'Yes, it makes sense to me too.'
p1196
as(S'sally'
p1197
S'gone'
p1198
S"'s"
p1199
S'different'
p1200
tp1201
(lp1202
S"I'm sure the pain of her loss is beyond words. With that amount of pain on board, Mr Thompson, have you had any thoughts of killing yourself? \r\n"
p1203
as(S'parents'
p1204
S'live'
p1205
S'together'
p1206
tp1207
(lp1208
S'yes\r\n'
p1209
as(S'let'
p1210
S'us'
p1211
S'talk'
p1212
tp1213
(lp1214
S'ok. Do you live at home with your parent, and have you got sisters and brothers?\r\n'
p1215
as(S'hello'
p1216
S'may'
p1217
S'i'
p1218
S'help'
p1219
S'you'
p1220
tp1221
(lp1222
S"I just called because I'm hopeless and alone. The only thing that helps is rinking. I just don't want to be alive anymore.\t\r\n"
p1223
as(S'okay'
p1224
S'okay'
p1225
S'i'
p1226
S'got'
p1227
tp1228
(lp1229
S"That's a start. Thank you.\t\r\n"
p1230
as(S'maybe'
p1231
tp1232
(lp1233
S'You know, right after you took the pills, what was the next thing you did.\r\n'
p1234
as(S'thank'
p1235
S'you'
p1236
S'doctor'
p1237
tp1238
(lp1239
S'You are welcome\r\n'
p1240
as(S'please'
p1241
S'call'
p1242
S'avni'
p1243
tp1244
(lp1245
S'Very well, Avni, if it makes you more comfortable.\r\n'
p1246
as(S'you'
p1247
S'like'
p1248
tp1249
(lp1250
S'A lot! \t\r\n'
p1251
as(S'others'
p1252
S'family'
p1253
S'ocd'
p1254
tp1255
(lp1256
S'yes, my father and my sister\r\n'
p1257
as(S'you'
p1258
S'ever'
p1259
S'tried'
p1260
S'take'
p1261
S'life'
p1262
tp1263
(lp1264
S"No, I haven't tried to kill myself. It seems too hard. I feel alone.\t\t\r\n"
p1265
as(S'i'
p1266
S'could'
p1267
S'ask'
p1268
S'i'
p1269
S'could'
p1270
S'talk'
p1271
tp1272
(lp1273
S'Yes that sounds good. When can you ask her about that?\r\n'
p1274
as(S'someone'
p1275
S'told'
p1276
S'knew'
p1277
S'guy'
p1278
S"n't"
p1279
S'point'
p1280
S'upwards'
p1281
S'darn'
p1282
S'thing'
p1283
S'shot'
p1284
S'right'
p1285
S'back'
p1286
S'neck'
p1287
S'hard'
p1288
S'believe'
p1289
tp1290
(lp1291
S'Sounds like you were pretty close though.\r\n'
p1292
as.