(dp0
(S'i'
p1
S"'d"
p2
S'like'
p3
S'you'
p4
S'come'
p5
S'back'
p6
S'thursday'
p7
tp8
(lp9
S'This Thursday? \t\r\n'
p10
as(S'yes'
p11
S'yes'
p12
S'i'
p13
S"'ve"
p14
S'done'
p15
tp16
(lp17
S'Did you load the gun? \r\n'
p18
as(S'yeah'
p19
S'sort'
p20
S'hollywoodish'
p21
S"'s"
p22
S'good'
p23
S'way'
p24
S'apt'
p25
S'work'
p26
S'right'
p27
tp28
(lp29
S'How often did you go out to the barn thinking about that? \r\n'
p30
as(S'i'
p31
S'think'
p32
S'jealous'
p33
tp34
(lp35
S'Jealous? How so? \t\r\n'
p36
as(S'i'
p37
S'see'
p38
S'you'
p39
S'happy'
p40
tp41
(lp42
S"I'm not. I don't like being told what to do. I can always run off. \t\r\n"
p43
as(S'i'
p44
S'thinking'
p45
S'going'
p46
S'old'
p47
S'therapist'
p48
S'i'
p49
S"n't"
p50
S'even'
p51
S'know'
p52
tp53
(lp54
S'if she is still around. It has been over a year since I last saw her.\r\n'
p55
as(S'you'
p56
S'really'
p57
S'think'
p58
S'you'
p59
S'would'
p60
S'better'
p61
tp62
(lp63
S"Maybe. I don't know. It's just that I'm tired of all these people telling me what I got to do with my life and my time. I'm sick of it.\r\n"
p64
as(S'well'
p65
S'kind'
p66
S'funny'
p67
tp68
(lp69
S'Did you do it? \t\r\n'
p70
as(S'larger'
p71
S'life'
p72
tp73
(lp74
S'So tell me, what are you doing to pursue your dream of being an actress? \t\r\n'
p75
as(S'you'
p76
S'dealing'
p77
S'sudden'
p78
S'death'
p79
S'susan'
p80
S'you'
p81
tp82
(lp83
S'are also feeling real guilty?\r\n'
p84
as(S'i'
p85
S'suppose'
p86
tp87
(lp88
S'Did you ever picture a place where you might shoot yourself? \r\n'
p89
as(S'i'
p90
S'still'
p91
S'cutting'
p92
tp93
(lp94
S'yes I think it would be good to say that. Could you also tell her that you would like help to stop it?\r\n'
p95
as(S'well'
p96
S'...'
p97
S'good'
p98
S'i'
p99
S'guess.but'
p100
S'...'
p101
S'kind'
p102
S'demanding'
p103
S'times'
p104
tp105
(lp106
S'I think it would help you to keep a journal. A place that you can fully express yourself, whenever you feel like it. How does that sound? \r\n'
p107
as(S'ca'
p108
S"n't"
p109
S'get'
p110
S'worse'
p111
S'i'
p112
S'see'
p113
S'someone'
p114
tp115
(lp116
S"What can't get any worse? \t\r\n"
p117
as(S'you'
p118
S'seeing'
p119
S'therapist'
p120
tp121
(lp122
S'Depression.\r\n'
p123
as(S'i'
p124
S'think'
p125
S"'s"
p126
S'i'
p127
S'busy'
p128
tp129
(lp130
S'How is your relationship with him besides the acting? \r\n'
p131
as(S'truth'
p132
S'is\x97i'
p133
S'could'
p134
S"n't"
p135
S'get'
p136
S'mind'
p137
tp138
(lp139
S'I can understand.\r\n'
p140
as(S'i'
p141
S'keep'
p142
S'meaning'
p143
S'...'
p144
tp145
(lp146
S"That's okay. Please go on.\r\n"
p147
as(S'times'
p148
S'i'
p149
S'never'
p150
S'got'
p151
S'pills'
p152
S'something'
p153
tp154
(lp155
S'What other ways have you thought about killing yourself? \r\n'
p156
as(S'yeah'
p157
S'later'
p158
S'man'
p159
tp160
(lp161
S'Please? \t\r\n'
p162
as(S'nope'
p163
tp164
(lp165
S"You know, Mr Thompson, most farmers I know like to hunt or at least have a gun around to protect their animals, and sometimes when they are in a lot of pain like you've been having they think of shooting themselves, I'm wondering if that has crossed your mind? \r\n"
p166
as(S'yea'
p167
tp168
(lp169
S'What kind of pills did you take? \r\n'
p170
as(S'sorry'
p171
S'doc'
p172
tp173
(lp174
S"Thank you. I'll see you soon. \t\r\n"
p175
as(S'i'
p176
S'bring'
p177
S'every'
p178
S'week'
p179
tp180
(lp181
S"That is up to you. The journal is a tool to assist you in monitoring your feelings. What bothers you, what makes you happy, and so forth. Then, at a later time, you can go back and reflect on what transpired, or remind yourself how you handled a situation and how you can best handle it if the problem resurfaces. If you would like to bring it in to discuss or as a basis for discussion, then by all means, do so. I also like to read them because they give me some insight into who you are. But if you feel uncomfortable about my reading your journal, that's perfectly okay too. Even if the journal is just for you to read, I'm sure you'll find it valuable. \t\r\n"
p182
as(S'heloo'
p183
tp184
(lp185
S"Quite honestly, I wouldn't worry myself about that. Do you speak Spanish?"
p186
as(S'boyfriend'
p187
S'jealous'
p188
tp189
(lp190
S'Jealous? How so? \r\n'
p191
as(S'i'
p192
S'always'
p193
S'blabber'
p194
S'i'
p195
S'nervous'
p196
tp197
(lp198
S"It's alright. Please make yourself comfortable.\r\n"
p199
as(S'you'
p200
S'something'
p201
S'you'
p202
S'always'
p203
S'welcome'
p204
S'write'
p205
S'us'
p206
S'-'
p207
S'also'
p208
S'you'
p209
S'need'
p210
S'find'
p211
S'solutions'
p212
tp213
(lp214
S'thanks bye bye\r\n'
p215
as(S'sir'
p216
S'i'
p217
S"n't"
p218
tp219
(lp220
S'What other ways have you thought about killing yourself? \r\n'
p221
as(S'good'
p222
S'morning'
p223
tp224
(lp225
S'Hello.\r\n'
p226
aS'Good morning Ms. Evans. Please have a seat. \t\r\n'
p227
as(S'i'
p228
S'tried'
p229
S'already'
p230
tp231
(lp232
S'yes and it did not really help so she should find another and better way to help you. Could you say that to her?\r\n'
p233
as(S'i'
p234
S'know'
p235
S'dumb'
p236
S'nothing'
p237
S'came'
p238
S'anyway'
p239
tp240
(lp241
S'When was that?\r\n'
p242
as(S'i'
p243
S'small'
p244
S'problem'
p245
S'i'
p246
S'cut'
p247
tp248
(lp249
S'Ok. Have you cut yourself today?\r\n'
p250
as(S'maybe'
p251
S'next'
p252
S'time'
p253
S'i'
p254
S'bring'
p255
S'you'
p256
S'flower'
p257
tp258
(lp259
S"That's very nice of you. But I would like to talk a little about why you came here.\t\r\n"
p260
as(S'i'
p261
S'fine'
p262
tp263
(lp264
S'Please have a seat.\r\n'
p265
as(S"n't"
p266
S'get'
p267
S'wrong'
p268
S'i'
p269
S"'m"
p270
S'still'
p271
S'drinking'
p272
S'past'
p273
S'couple'
p274
S'days'
p275
tp276
(lp277
S'I know from your son that you called him the next day. Had you tried any other ways of killing yourself before you called him?\r\n'
p278
as(S'moment'
p279
tp280
(lp281
S'yes good. What could you say to her then?\r\n'
p282
as(S'i'
p283
S'love'
p284
S'you'
p285
tp286
(lp287
S'Thanks I like you a lot too .'
p288
as(S'uh'
p289
S'huh'
p290
S'right'
p291
tp292
(lp293
S'I can help you, if you let me. Do you want to talk about your problem? \t\r\n'
p294
as(S'i'
p295
S'love'
p296
S'playing'
p297
S'games'
p298
tp299
(lp300
S'You love playing games. What do you like about playing games so much?'
p301
as(S'except'
p302
S'romantically'
p303
tp304
(lp305
S'What happens romantically? \t\r\n'
p306
as(S'bye'
p307
tp308
(lp309
S'Have a nice day.See you soon.\r\n'
p310
as(S'you'
p311
S'understand'
p312
tp313
(lp314
S'Maybe I will do understand?'
p315
as(S'10'
p316
tp317
(lp318
S'Any other pills?\r\n'
p319
as(S'would'
p320
S'you'
p321
S'like'
p322
S'us'
p323
S'talk'
p324
S'chat'
p325
S'right'
p326
tp327
(lp328
S'I would like to get some advice how I stop this thing about me cutting myself,\r\n'
p329
as(S'stop'
p330
S'you'
p331
S'like'
p332
S'also'
p333
S'talk'
p334
S'bit'
p335
tp336
(lp337
S'about how you can talk to the staff member?\r\n'
p338
as(S'i'
p339
S'live'
p340
S'children'
p341
S"'s"
p342
S'home'
p343
S'i'
p344
S'done'
p345
S'two'
p346
S'months'
p347
tp348
(lp349
S'Where do your sister and brother live?\r\n'
p350
as(S'i'
p351
S'mean'
p352
S'i'
p353
S'little'
p354
S'embarrassed'
p355
S'uncomfortable'
p356
tp357
(lp358
S"I understand. This is only our first session and it's normal to take some time to develop a level of trust between us. Hopefully we'll be able to explore troubling areas more deeply as time progresses. In the meantime, I think it would help you to keep a journal. A place that you can fully express yourself, whenever you feel like it. How does that sound? \t\r\n"
p359
as(S'i'
p360
S'would'
p361
S'upset'
p362
tp363
(lp364
S"Would you? Do you really understand? I don't think anybody really does, you know. Even my friends don't, I think. \r\n"
p365
as(S'sounds'
p366
S'helpful'
p367
tp368
(lp369
S'I am glad you like the thought.\r\n'
p370
as(S'i'
p371
S'guess'
p372
S'i'
p373
S'drink'
p374
S'much'
p375
S'alone'
p376
tp377
(lp378
S'Making plans with friends and family members\t\r\n'
p379
as(S'you'
p380
S'tell'
p381
S'feelings'
p382
tp383
(lp384
S'Yes .\r\n'
p385
as(S'you'
p386
S'know'
p387
S"n't"
p388
S'always'
p389
S'work'
p390
S'least'
p391
S"'s"
p392
S'i'
p393
S'told'
p394
tp395
(lp396
S'Have you ever gotten a rope out or something else to use to hang yourself?\r\n'
p397
as(S'old'
p398
S'barn'
p399
S'drafty'
p400
S'you'
p401
S'could'
p402
S"n't"
p403
S'you'
p404
S'tried'
p405
tp406
(lp407
S'Have you thought of jumping off a building or bridge? \r\n'
p408
as(S'i'
p409
S'sad'
p410
tp411
(lp412
S", Maybe I didn't understand your meaning."
p413
as(S'right'
p414
S'i'
p415
S'dont'
p416
S'go'
p417
S'school'
p418
tp419
(lp420
S"Can you tell me why you have moved to a children's home\r\n"
p421
as(S'yes'
p422
tp423
(lp424
S'Do you need help here and now, or should we talk a little about your situation?\r\n'
p425
aS'Have you ever tried to talk to anyone about this pain before?\r\n'
p426
aS'What did you do next?\r\n'
p427
aS"You really miss her don't you?\r\n"
p428
aS'I did not think I was that sick. \t\r\n'
p429
as(S'i'
p430
S"n't"
p431
S'really'
p432
S'give'
p433
S'shit'
p434
S'happened'
p435
tp436
(lp437
S"We aren't out of time just yet. Would you like to tell me about the tricks you use? \t\r\n"
p438
as(S'go'
p439
S'school'
p440
S'moment'
p441
tp442
(lp443
S'I have ocd\r\n'
p444
as(S'everyone'
p445
tp446
(lp447
S'Very well, Cassie, if it makes you more comfortable. I see from your form that you have never been to a therapist before. If you have any questions feel free to ask them at anytime, okay? Now, what brings you into the office today? \t\r\n'
p448
as(S'i'
p449
S"'ve"
p450
S'back'
p451
S'times'
p452
tp453
(lp454
S"Actually, we are just about out of time.. I'll see you next time, Alex. \t\r\n"
p455
as(S'fine.thank'
p456
S'you'
p457
tp458
(lp459
S"Okay. Why don't we start by discussing what has been on your mind? \t\r\n"
p460
as(S'i'
p461
S'asked'
p462
S'you'
p463
S'find'
p464
S'solution'
p465
S'would'
p466
S'first'
p467
S'thing'
p468
S'you'
p469
S'think'
p470
tp471
(lp472
S'Spik to the staff again  maybe\r\n'
p473
as(t(lp474
S'last week\r\n'
p475
aS'For example something like I still cut myself and would like some help to stop it. But I dont think it is enough that you just take the things I use for cutting myself. I dont know what could help me, but I need help \x96 how does that sound?\r\n'
p476
aS'I liked it in a good way, you know. \t\r\n'
p477
as(S'i'
p478
S'tired'
p479
tp480
(lp481
S'How did you feel about the fact that you woke up okay?\r\n'
p482
as(S'first'
p483
S'time'
p484
S'counselor'
p485
tp486
(lp487
S'If you have any questions feel free to ask them at anytime, okay?\r\n'
p488
as(S'nothing'
p489
S'else'
p490
S'really'
p491
tp492
(lp493
S'What about carbon monoxide, you know, with a car or tractor? \r\n'
p494
as(S'things'
p495
S'you'
p496
S'tried'
p497
tp498
(lp499
S'i have talked to my friends who also cut themselves. some of them have gone to therapy, but it does not help.\r\n'
p500
as(S'chris'
p501
S'you'
p502
S'mentioned'
p503
S'you'
p504
S'think'
p505
S'suicide'
p506
S'way'
p507
S'cope'
p508
tp509
(lp510
S"feelings and problem generated by Susan's death. Do you have a plan? How would you go about killing yourself?\r\n"
p511
as(S'anyone'
p512
S'you'
p513
S'think'
p514
S'could'
p515
S'help'
p516
S'you'
p517
S'solve'
p518
S'problems'
p519
tp520
(lp521
S'No.\r\n'
p522
as(S'you'
p523
tp524
(lp525
S"I just can't help thinking that if it wasn't for me, Susan will still be\r\n"
p526
aS'I am fine. How are you?\r\n'
p527
as(S'hello'
p528
S'doctor'
p529
tp530
(lp531
S'Hello. Please sit down. \t\r\n'
p532
as(S'i'
p533
S'tred'
p534
S'wo'
p535
S"n't"
p536
S'talk'
p537
tp538
(lp539
S'Your guess as to what might have happened. Is there anything you know of that may have caused her to react like this?\r\n'
p540
as(S'would'
p541
S'you'
p542
S'like'
p543
S'proceed'
p544
tp545
(lp546
S"I'm done with all of this?\r\n"
p547
as(S'hello'
p548
tp549
(lp550
S'Hello, how may I help you?\r\n'
p551
as(S'i'
p552
S'would'
p553
S'like'
p554
S'i'
p555
S'dont'
p556
S'really'
p557
S'know'
p558
S'say'
p559
tp560
(lp561
S'how could you get to talk to the staff member you trust alone?\r\n'
p562
as(S'you'
p563
S'thinking'
p564
S'you'
p565
S'blamed'
p566
S'susan'
p567
S"'s"
p568
S'death'
p569
tp570
(lp571
S'If I kill my self they will not have me to kick around any more!\r\n'
p572
as(S'2'
p573
S'weeks'
p574
S'ago'
p575
tp576
(lp577
S'Right around then, when things were really tough, how much time were you spending thinking about killing yourself, 70% of your waking hours, 80%, 90%? \r\n'
p578
as(S'wo'
p579
S"n't"
p580
S'even'
p581
S'discuss'
p582
S'anymore'
p583
tp584
(lp585
S'How is your relationship with him besides the acting? \t\r\n'
p586
as(S'let'
p587
S'us'
p588
S'see'
p589
S'together'
p590
tp591
(lp592
S'yes\r\n'
p593
as(S"'s"
p594
S'something'
p595
S'i'
p596
S'learned'
p597
S'acting'
p598
S'classes'
p599
S'explore'
p600
S'unconscious'
p601
S'stuff'
p602
tp603
(lp604
S'Good. I think this will help you with other aspects of life as well. \t\r\n'
p605
as(S'i'
p606
S"'ve"
p607
S'often'
p608
S'thought'
p609
S'i'
p610
S'go'
p611
S"'s"
p612
S'i'
p613
S'would'
p614
tp615
(lp616
S'Did you ever go there with a gun, thinking you might kill yourself? \r\n'
p617
as(S'you'
p618
S'thought'
p619
S'taking'
p620
S'life'
p621
tp622
(lp623
S"I've thought about it but I wouldn't do it. Somehow, today, it does seem more like a good idea.\t\r\n"
p624
as(S'i'
p625
S'always'
p626
S'loved'
p627
S'little'
p628
S'place'
p629
tp630
(lp631
S' Yea, I bet it brings back warm memories of Sally.\r\n'
p632
as(S'sister'
p633
S'lives'
p634
S'home'
p635
S'brother'
p636
S'moved'
p637
S'away'
p638
S'home'
p639
tp640
(lp641
S'Do you go to school?\r\n'
p642
as(S'thursday'
p643
S'4'
p644
S'pm'
p645
tp646
(lp647
S'Okay. Thank you Doctor. \t\r\n'
p648
as(S'aspirin'
p649
S'penicillin'
p650
tp651
(lp652
S'How much did you take of each one? \r\n'
p653
as(S'you'
p654
S'help'
p655
S'doctor'
p656
tp657
(lp658
S"I understand you don't want to be here. And I'm not a social worker. Mostly, I'm here to help you think through some issues in your life. \t\r\n"
p659
as(S'i'
p660
S'25'
p661
S'years'
p662
S'old'
p663
tp664
(lp665
S'Can you explain how it feels to be 25 years old?'
p666
as(S'you'
p667
S'talked'
p668
S'since'
p669
tp670
(lp671
S'no\r\n'
p672
as(S'you'
p673
S'tried'
p674
S'far'
p675
S'make'
p676
S'stop'
p677
tp678
(lp679
S'I have told it to the staff here at the home\r\n'
p680
as(S'maybe'
p681
S'i'
p682
S'thought'
p683
S'i'
p684
S'around'
p685
S'grandkids'
p686
S'i'
p687
S"n't"
p688
S'know'
p689
S'anymore'
p690
tp691
(lp692
S'Mr Thompson, roughly when was this?\r\n'
p693
as(S'welcome'
p694
tp695
(lp696
S"I don't want to be here. \t\r\n"
p697
as(S'i'
p698
S'dont'
p699
S'live'
p700
S'home'
p701
S'parents'
p702
S'i'
p703
S'sister'
p704
S'brother'
p705
tp706
(lp707
S'Can you tell me a little about where you live?\r\n'
p708
as(S'i'
p709
S"'m"
p710
S'way'
p711
S'old'
p712
S'crap'
p713
tp714
(lp715
S"And it's got to be hard to do it alone.\r\n"
p716
as(S'i'
p717
S'hungry'
p718
tp719
(lp720
S'What will you be eating?'
p721
as(S'one'
p722
S'you'
p723
S'trust'
p724
tp725
(lp726
S'yes I think so. Thanks bye bye\r\n'
p727
as(S'i'
p728
S'guess'
p729
S'i'
p730
tp731
(lp732
S'Was the safety off?\r\n'
p733
as(S'lot'
p734
S'i'
p735
S"n't"
p736
S'keep'
p737
S'many'
p738
S'pills'
p739
S'house'
p740
S'prescriptions'
p741
S'basically'
p742
S'run'
p743
tp744
(lp745
S'Did you look for any other pills?\r\n'
p746
as(S'well'
p747
S'i'
p748
S'gone'
p749
S'barn'
p750
S'see'
p751
S'still'
p752
S'pesticide'
p753
S'i'
p754
S'used'
p755
S'couple'
p756
S'years'
p757
S'ago'
p758
tp759
(lp760
S'And? \r\n'
p761
as(S'chris'
p762
S'you'
p763
S'ever'
p764
S'tried'
p765
S'anything'
p766
S'like'
p767
tp768
(lp769
S'No\r\n'
p770
as(S'i'
p771
S'busy'
p772
tp773
(lp774
S'Where were you busy?'
p775
as(S'bye'
p776
S'bye'
p777
tp778
(lp779
S"OK, I guess. I just can't seem to stop thinking about Susan killing herself.\r\n"
p780
as(S'girl'
p781
S'13'
p782
S'years'
p783
S'old'
p784
tp785
(lp786
S'Thanks  then I can better adapt to what you tell. What would you like to talk about?\r\n'
p787
as(S'i'
p788
S'see'
p789
S'around'
p790
S'...'
p791
tp792
(lp793
S'How do you feel when you see him around? \t\r\n'
p794
as(S'thing'
p795
S'look'
p796
S'like'
p797
tp798
(lp799
S'How should I know how  that thing look like  does.'
p800
as(S'i'
p801
S"'m"
p802
S'sorry'
p803
tp804
(lp805
S'I do understand.\r\n'
p806
as(S'i'
p807
S"'ll"
p808
S'guess'
p809
S'around'
p810
S'two'
p811
S'years'
p812
tp813
(lp814
S'And do you consider yourself the winner in this case? After landing in juvenile hall? \t\r\n'
p815
as(S'okay'
p816
tp817
(lp818
S"Good. I'm afraid our session is a bit abbreviated this time. So I'll see you in a week. Let's see, that's July 30th at 1 o'clock. Okay? \t\r\n"
p819
as(S'i'
p820
S'ca'
p821
S"n't"
p822
S'live'
p823
S'guilt'
p824
tp825
(lp826
S'I understand it must be real painful to lose someone you care about.\r\n'
p827
as(S"'s"
p828
S'way'
p829
tp830
(lp831
S'Had you been drinking at all, even a little bit?\r\n'
p832
as(S'you'
p833
S'made'
p834
S'plan'
p835
tp836
(lp837
S"Well, I have been sitting here thinking about it. I thought about my guns but I don't think I would use one. Still.\t\t\r\n"
p838
as(S'hi'
p839
tp840
(lp841
S'Before we start please tell me how old you are and if you are a boy or a girl?\r\n'
p842
as(S'jerk'
p843
tp844
(lp845
S"Perhaps I'm just expressing my own concern about it. What is your occupation?"
p846
as(S'i'
p847
S'thinking'
p848
S'taking'
p849
S'burning'
p850
S'barn'
p851
S'inside'
p852
tp853
(lp854
S'Hmmm.\r\n'
p855
as(S'fred'
p856
S'ginger'
p857
S'waltzing'
p858
S'across'
p859
S'big'
p860
S'screen'
p861
S'vivien'
p862
S'leigh'
p863
S"'gone"
p864
S'wind'
p865
S"'"
p866
S'casablanca'
p867
tp868
(lp869
S'What is it about acting and those films that intrigue you? \t\r\n'
p870
as(S'you'
p871
S'care'
p872
tp873
(lp874
S'You brought it up. I thought perhaps we should talk about that. \t\r\n'
p875
as(S'i'
p876
S'thought'
p877
S'i'
p878
S'needed'
p879
S'rest'
p880
S'sort'
p881
S'i'
p882
S'wanted'
p883
S'talk'
p884
S'nick'
p885
tp886
(lp887
S'Good. How about over the past couple of months, have you had any other thoughts of overdosing?\r\n'
p888
aS'Good. How about over the past couple of months, have you had any other thoughts of overdosing? \r\n'
p889
as(S'thank'
p890
S'you'
p891
tp892
(lp893
S'Now, what brings you into the office today? \t\r\n'
p894
as(S'you'
p895
S'know'
p896
S'i'
p897
tp898
(lp899
S"Let's go back to the issue at hand. How long have you been involved in this? \t\r\n"
p900
as(S'i'
p901
S'find'
p902
S'time'
p903
tp904
(lp905
S"Ah. Why can't you do find time?"
p906
as(S'i'
p907
S'fine.what'
p908
S'you'
p909
tp910
(lp911
S"Glad to hear it. What's new?  Me?"
p912
as(S'anything'
p913
S'you'
p914
S'considered'
p915
S'might'
p916
S'help'
p917
tp918
(lp919
S'no not really\r\n'
p920
as(S'i'
p921
S'think'
p922
S'try'
p923
S'help'
p924
tp925
(lp926
S'Yes, that would be nice.\r\n'
p927
as(S'i'
p928
S'also'
p929
S'took'
p930
S'5'
p931
S'digoxin'
p932
S'i'
p933
S"'m"
p934
S'i'
p935
S"'m"
p936
S'supposed'
p937
S'i'
p938
S'know'
p939
tp940
(lp941
S'Did you have any pills left? \r\n'
p942
as(S'well'
p943
S'i'
p944
S'guess'
p945
S'style'
p946
S'romance'
p947
S'way'
p948
S'anything'
p949
S'could'
p950
S'happen'
p951
tp952
(lp953
S'So tell me, what are you doing to pursue your dream of being an actress? \r\n'
p954
as(S'i'
p955
S'really'
p956
S'like'
p957
S'going'
p958
S"'s"
p959
S'hard'
p960
tp961
(lp962
S'Why? \t\r\n'
p963
as(S'i'
p964
S'think'
p965
S'ok'
p966
tp967
(lp968
S'how do you think she will react if you say it in this way?\r\n'
p969
as(S'shall'
p970
S'i'
p971
S'begin'
p972
tp973
(lp974
S'Please do. \t\r\n'
p975
as(S'trust'
p976
S'suicide'
p977
S'answer'
p978
S'god'
p979
S'put'
p980
S'us'
p981
S'earth'
p982
S'kill'
p983
tp984
(lp985
S"I'm glad you feel that way. And maybe we can help some too. At least I hope so.\r\n"
p986
as(S'course'
p987
S'i'
p988
S'!'
p989
tp990
(lp991
S'You said it was the first time you went there? \t\r\n'
p992
as(S'thank'
p993
S'you'
p994
S'help'
p995
tp996
(lp997
S"I'm glad that you called. Please call again if you need to.\r\n"
p998
aS"I'm glad that you called. I hope your daughter will be better soon.\r\n"
p999
as(S'i'
p1000
S"n't"
p1001
S'know'
p1002
tp1003
(lp1004
S'Have you tried to talk to your daughter?\r\n'
p1005
as(S'i'
p1006
S'guess'
p1007
tp1008
(lp1009
S'So how are you feeling now? Do you still feel like you want to be dead?\t\r\n'
p1010
aS"I'm glad to hear that you're not feeling like taking your life now. PAUSE, allow  time to respond or not as they\twish. If you are not convinced that the  is ok, return to the assessment and probe more.I want you to promise to call back if you start feeling like taking your life. Will you do that?\r\n"
p1011
as(S'chris'
p1012
S'i'
p1013
S'know'
p1014
S'hurts'
p1015
S'lot'
p1016
S'right'
p1017
S'seems'
p1018
S'like'
p1019
S'way'
p1020
S'i'
p1021
S'i'
p1022
S'help'
p1023
S'you'
p1024
S'you'
p1025
S'let'
p1026
tp1027
(lp1028
S"What can you do ? I'm ready to leave now.\r\n"
p1029
as(S'talked'
p1030
S'you'
p1031
S'already'
p1032
S'donewould'
p1033
S'ok'
p1034
S'you'
p1035
S'finish'
p1036
S'conversation'
p1037
tp1038
(lp1039
S'here?\r\n'
p1040
as(S'i'
p1041
S'think'
p1042
S'i'
p1043
S'understand'
p1044
S'you'
p1045
S'tell'
p1046
S'lead'
p1047
S'you'
p1048
S'think'
p1049
S'suicide'
p1050
tp1051
(lp1052
S"You got that right . I'll show them.\r\n"
p1053
as(S'i'
p1054
S'sorry'
p1055
tp1056
(lp1057
S"I do understand. I'm sure you will try to be on time in the future. \t\r\n"
p1058
as(S'world'
p1059
tp1060
(lp1061
S'What made you put the gun down, Mr Thompson? \r\n'
p1062
as(S'maybe'
p1063
S'i'
p1064
S"n't"
p1065
S'even'
p1066
tp1067
(lp1068
S'It is ok to feel that way first time.\r\n'
p1069
aS"Okay. Why don't we start by discussing what has been on your mind? \t\r\n"
p1070
as(S'i'
p1071
S'really'
p1072
S'like'
p1073
S'maybe'
p1074
S'even'
p1075
S'love'
p1076
S'...'
p1077
S'kind'
p1078
S'demanding'
p1079
S'times'
p1080
tp1081
(lp1082
S'How do you mean, demanding? \t\r\n'
p1083
as(S'i'
p1084
tp1085
(lp1086
S'hello.  \r\n'
p1087
as(S'okay'
p1088
S'okay'
p1089
S'i'
p1090
S'got'
p1091
tp1092
(lp1093
S"That's a start. Thank you.\t\r\n"
p1094
as(S'normally'
p1095
S'close'
p1096
S'grandparents'
p1097
tp1098
(lp1099
S'grief can affect different people differently.\r\n'
p1100
as(S'i'
p1101
S'happy'
p1102
tp1103
(lp1104
S", Maybe I didn't understand your meaning."
p1105
as(S'maybe'
p1106
S'4'
p1107
S'5'
p1108
S'times'
p1109
S'i'
p1110
S"n't"
p1111
S'really'
p1112
S'remember'
p1113
S'exactly'
p1114
tp1115
(lp1116
S'What other ways have you thought of killing yourself? \r\n'
p1117
as(S'yes'
p1118
S'i'
p1119
S'planning'
p1120
S'get'
p1121
S'drunk'
p1122
S'drive'
p1123
S'bridge'
p1124
S'tonight'
p1125
tp1126
(lp1127
S'So the pain feels so intense you are thinking of crashing your car off the bridge tonight.\r\n'
p1128
as(S'yes'
p1129
S'i'
p1130
S'could'
p1131
S'car'
p1132
tp1133
(lp1134
S'Have you thought about when you would do it?\r\n'
p1135
as(S'i'
p1136
S'feeling'
p1137
S'sad'
p1138
S'today'
p1139
tp1140
(lp1141
S'What\'s the connection between "today " and sadness?'
p1142
as(S'yes'
p1143
S'thanks'
p1144
tp1145
(lp1146
S'You are welcome. It was nice talking to you. It is great\r\n'
p1147
as(S'great'
p1148
S'you'
p1149
S'happened'
p1150
S'next'
p1151
tp1152
(lp1153
S'They have tried to find the thing that it use for it, but they did not find them\r\n'
p1154
as(S'one'
p1155
S'except'
p1156
S'you'
p1157
S'talk'
p1158
tp1159
(lp1160
S"I'm sure everyone hates me and wishes I were dead. I might as well do them a favor.\r\n"
p1161
as(S'i'
p1162
S'guess'
p1163
S'i'
p1164
S"n't"
p1165
S'everything'
p1166
S'i'
p1167
tp1168
(lp1169
S'Why? \r\n'
p1170
as(S'you'
p1171
S'want'
p1172
S'talk'
p1173
S'you'
p1174
tp1175
(lp1176
S"Doctor, you know why I'm here. It's not like I had much of a choice.\t\r\n"
p1177
as(S'well'
p1178
S'i'
p1179
S'frustrated'
p1180
S'lately'
p1181
S'acting'
p1182
tp1183
(lp1184
S'What is it about acting that intrigues you? \t\r\n'
p1185
as(S'people'
p1186
S'help'
p1187
tp1188
(lp1189
S'How?\r\n'
p1190
as(S'handful'
p1191
tp1192
(lp1193
S'When you say a handful, how many of each do you mean? \r\n'
p1194
as(S'i'
p1195
S'see'
p1196
tp1197
(lp1198
S'Yes, it makes sense to me too.'
p1199
as(S'sally'
p1200
S'gone'
p1201
S"'s"
p1202
S'different'
p1203
tp1204
(lp1205
S"I'm sure the pain of her loss is beyond words. With that amount of pain on board, Mr Thompson, have you had any thoughts of killing yourself? \r\n"
p1206
as(S'parents'
p1207
S'live'
p1208
S'together'
p1209
tp1210
(lp1211
S'yes\r\n'
p1212
as(S'let'
p1213
S'us'
p1214
S'talk'
p1215
tp1216
(lp1217
S'ok. Do you live at home with your parent, and have you got sisters and brothers?\r\n'
p1218
as(S'hello'
p1219
S'may'
p1220
S'i'
p1221
S'help'
p1222
S'you'
p1223
tp1224
(lp1225
S"I just called because I'm hopeless and alone. The only thing that helps is rinking. I just don't want to be alive anymore.\t\r\n"
p1226
as(S'i'
p1227
S"'m"
p1228
S'going'
p1229
S'anything'
p1230
S'stupid'
p1231
S'you'
p1232
S"n't"
p1233
S'worry'
p1234
tp1235
(lp1236
S"You know what, Mr Thompson . . . that may be true, but I just want to get a better feeling for what you've been going through so we can make a wise decision together. Where were you when you took the pills? \r\n"
p1237
as(S'maybe'
p1238
tp1239
(lp1240
S'You know, right after you took the pills, what was the next thing you did.\r\n'
p1241
as(S'thank'
p1242
S'you'
p1243
S'doctor'
p1244
tp1245
(lp1246
S'You are welcome\r\n'
p1247
as(S'ok.ok'
p1248
tp1249
(lp1250
S'Alright then.  Alright then.'
p1251
as(S'please'
p1252
S'call'
p1253
S'avni'
p1254
tp1255
(lp1256
S'Very well, Avni, if it makes you more comfortable.\r\n'
p1257
as(S'you'
p1258
S'like'
p1259
tp1260
(lp1261
S'A lot! \t\r\n'
p1262
as(S'others'
p1263
S'family'
p1264
S'ocd'
p1265
tp1266
(lp1267
S'yes, my father and my sister\r\n'
p1268
as(S'you'
p1269
S'ever'
p1270
S'tried'
p1271
S'take'
p1272
S'life'
p1273
tp1274
(lp1275
S"No, I haven't tried to kill myself. It seems too hard. I feel alone.\t\t\r\n"
p1276
as(S'i'
p1277
S'could'
p1278
S'ask'
p1279
S'i'
p1280
S'could'
p1281
S'talk'
p1282
tp1283
(lp1284
S'Yes that sounds good. When can you ask her about that?\r\n'
p1285
as(S'someone'
p1286
S'told'
p1287
S'knew'
p1288
S'guy'
p1289
S"n't"
p1290
S'point'
p1291
S'upwards'
p1292
S'darn'
p1293
S'thing'
p1294
S'shot'
p1295
S'right'
p1296
S'back'
p1297
S'neck'
p1298
S'hard'
p1299
S'believe'
p1300
tp1301
(lp1302
S'Sounds like you were pretty close though.\r\n'
p1303
as.